ARM GAS  /tmp/ccGdvDfj.s 			page 1


   1              		.cpu cortex-m7
   2              		.arch armv7e-m
   3              		.fpu fpv5-d16
   4              		.eabi_attribute 28, 1
   5              		.eabi_attribute 20, 1
   6              		.eabi_attribute 21, 1
   7              		.eabi_attribute 23, 3
   8              		.eabi_attribute 24, 1
   9              		.eabi_attribute 25, 1
  10              		.eabi_attribute 26, 1
  11              		.eabi_attribute 30, 1
  12              		.eabi_attribute 34, 1
  13              		.eabi_attribute 18, 4
  14              		.file	"freertos.c"
  15              		.text
  16              	.Ltext0:
  17              		.cfi_sections	.debug_frame
  18              		.section	.text.subscription_callback,"ax",%progbits
  19              		.align	1
  20              		.global	subscription_callback
  21              		.syntax unified
  22              		.thumb
  23              		.thumb_func
  25              	subscription_callback:
  26              	.LVL0:
  27              	.LFB151:
  28              		.file 1 "Core/Src/freertos.c"
   1:Core/Src/freertos.c **** /* USER CODE BEGIN Header */
   2:Core/Src/freertos.c **** /**
   3:Core/Src/freertos.c ****   ******************************************************************************
   4:Core/Src/freertos.c ****   * File Name          : freertos.c
   5:Core/Src/freertos.c ****   * Description        : Code for freertos applications
   6:Core/Src/freertos.c ****   ******************************************************************************
   7:Core/Src/freertos.c ****   * @attention
   8:Core/Src/freertos.c ****   *
   9:Core/Src/freertos.c ****   * Copyright (c) 2023 STMicroelectronics.
  10:Core/Src/freertos.c ****   * All rights reserved.
  11:Core/Src/freertos.c ****   *
  12:Core/Src/freertos.c ****   * This software is licensed under terms that can be found in the LICENSE file
  13:Core/Src/freertos.c ****   * in the root directory of this software component.
  14:Core/Src/freertos.c ****   * If no LICENSE file comes with this software, it is provided AS-IS.
  15:Core/Src/freertos.c ****   *
  16:Core/Src/freertos.c ****   ******************************************************************************
  17:Core/Src/freertos.c ****   */
  18:Core/Src/freertos.c **** /* USER CODE END Header */
  19:Core/Src/freertos.c **** 
  20:Core/Src/freertos.c **** /* Includes ------------------------------------------------------------------*/
  21:Core/Src/freertos.c **** #include "FreeRTOS.h"
  22:Core/Src/freertos.c **** #include "task.h"
  23:Core/Src/freertos.c **** #include "main.h"
  24:Core/Src/freertos.c **** #include "cmsis_os.h"
  25:Core/Src/freertos.c **** 
  26:Core/Src/freertos.c **** /* Private includes ----------------------------------------------------------*/
  27:Core/Src/freertos.c **** /* USER CODE BEGIN Includes */
  28:Core/Src/freertos.c **** #include <stdio.h>
  29:Core/Src/freertos.c **** #include <stdbool.h>
  30:Core/Src/freertos.c **** #include <rcl/rcl.h>
ARM GAS  /tmp/ccGdvDfj.s 			page 2


  31:Core/Src/freertos.c **** #include <rcl/error_handling.h>
  32:Core/Src/freertos.c **** #include <rclc/rclc.h>
  33:Core/Src/freertos.c **** #include <rclc/executor.h>
  34:Core/Src/freertos.c **** #include <uxr/client/transport.h>
  35:Core/Src/freertos.c **** #include <rmw_microxrcedds_c/config.h>
  36:Core/Src/freertos.c **** #include <rmw_microros/rmw_microros.h>
  37:Core/Src/freertos.c **** 
  38:Core/Src/freertos.c **** #include <std_msgs/msg/int32.h>
  39:Core/Src/freertos.c **** #include <geometry_msgs/msg/twist.h>
  40:Core/Src/freertos.c **** #include "usart.h"
  41:Core/Src/freertos.c **** /* USER CODE END Includes */
  42:Core/Src/freertos.c **** 
  43:Core/Src/freertos.c **** /* Private typedef -----------------------------------------------------------*/
  44:Core/Src/freertos.c **** typedef StaticTask_t osStaticThreadDef_t;
  45:Core/Src/freertos.c **** /* USER CODE BEGIN PTD */
  46:Core/Src/freertos.c **** 
  47:Core/Src/freertos.c **** /* USER CODE END PTD */
  48:Core/Src/freertos.c **** 
  49:Core/Src/freertos.c **** /* Private define ------------------------------------------------------------*/
  50:Core/Src/freertos.c **** /* USER CODE BEGIN PD */
  51:Core/Src/freertos.c **** 
  52:Core/Src/freertos.c **** /* USER CODE END PD */
  53:Core/Src/freertos.c **** 
  54:Core/Src/freertos.c **** /* Private macro -------------------------------------------------------------*/
  55:Core/Src/freertos.c **** /* USER CODE BEGIN PM */
  56:Core/Src/freertos.c **** 
  57:Core/Src/freertos.c **** /* USER CODE END PM */
  58:Core/Src/freertos.c **** 
  59:Core/Src/freertos.c **** /* Private variables ---------------------------------------------------------*/
  60:Core/Src/freertos.c **** /* USER CODE BEGIN Variables */
  61:Core/Src/freertos.c **** 
  62:Core/Src/freertos.c **** /* USER CODE END Variables */
  63:Core/Src/freertos.c **** /* Definitions for defaultTask */
  64:Core/Src/freertos.c **** osThreadId_t defaultTaskHandle;
  65:Core/Src/freertos.c **** uint32_t defaultTaskBuffer[ 3000 ];
  66:Core/Src/freertos.c **** osStaticThreadDef_t defaultTaskControlBlock;
  67:Core/Src/freertos.c **** const osThreadAttr_t defaultTask_attributes = {
  68:Core/Src/freertos.c ****   .name = "defaultTask",
  69:Core/Src/freertos.c ****   .cb_mem = &defaultTaskControlBlock,
  70:Core/Src/freertos.c ****   .cb_size = sizeof(defaultTaskControlBlock),
  71:Core/Src/freertos.c ****   .stack_mem = &defaultTaskBuffer[0],
  72:Core/Src/freertos.c ****   .stack_size = sizeof(defaultTaskBuffer),
  73:Core/Src/freertos.c ****   .priority = (osPriority_t) osPriorityNormal,
  74:Core/Src/freertos.c **** };
  75:Core/Src/freertos.c **** 
  76:Core/Src/freertos.c **** /* Private function prototypes -----------------------------------------------*/
  77:Core/Src/freertos.c **** /* USER CODE BEGIN FunctionPrototypes */
  78:Core/Src/freertos.c **** bool cubemx_transport_open(struct uxrCustomTransport * transport);
  79:Core/Src/freertos.c **** bool cubemx_transport_close(struct uxrCustomTransport * transport);
  80:Core/Src/freertos.c **** size_t cubemx_transport_write(struct uxrCustomTransport* transport, const uint8_t * buf, size_t len
  81:Core/Src/freertos.c **** size_t cubemx_transport_read(struct uxrCustomTransport* transport, uint8_t* buf, size_t len, int ti
  82:Core/Src/freertos.c **** 
  83:Core/Src/freertos.c **** void * microros_allocate(size_t size, void * state);
  84:Core/Src/freertos.c **** void microros_deallocate(void * pointer, void * state);
  85:Core/Src/freertos.c **** void * microros_reallocate(void * pointer, size_t size, void * state);
  86:Core/Src/freertos.c **** void * microros_zero_allocate(size_t number_of_elements, size_t size_of_element, void * state);
  87:Core/Src/freertos.c **** 
ARM GAS  /tmp/ccGdvDfj.s 			page 3


  88:Core/Src/freertos.c **** /* USER CODE END FunctionPrototypes */
  89:Core/Src/freertos.c **** 
  90:Core/Src/freertos.c **** void StartDefaultTask(void *argument);
  91:Core/Src/freertos.c **** 
  92:Core/Src/freertos.c **** void MX_FREERTOS_Init(void); /* (MISRA C 2004 rule 8.1) */
  93:Core/Src/freertos.c **** 
  94:Core/Src/freertos.c **** /**
  95:Core/Src/freertos.c ****   * @brief  FreeRTOS initialization
  96:Core/Src/freertos.c ****   * @param  None
  97:Core/Src/freertos.c ****   * @retval None
  98:Core/Src/freertos.c ****   */
  99:Core/Src/freertos.c **** void MX_FREERTOS_Init(void) {
 100:Core/Src/freertos.c ****   /* USER CODE BEGIN Init */
 101:Core/Src/freertos.c **** 
 102:Core/Src/freertos.c ****   /* USER CODE END Init */
 103:Core/Src/freertos.c **** 
 104:Core/Src/freertos.c ****   /* USER CODE BEGIN RTOS_MUTEX */
 105:Core/Src/freertos.c ****   /* add mutexes, ... */
 106:Core/Src/freertos.c ****   /* USER CODE END RTOS_MUTEX */
 107:Core/Src/freertos.c **** 
 108:Core/Src/freertos.c ****   /* USER CODE BEGIN RTOS_SEMAPHORES */
 109:Core/Src/freertos.c ****   /* add semaphores, ... */
 110:Core/Src/freertos.c ****   /* USER CODE END RTOS_SEMAPHORES */
 111:Core/Src/freertos.c **** 
 112:Core/Src/freertos.c ****   /* USER CODE BEGIN RTOS_TIMERS */
 113:Core/Src/freertos.c ****   /* start timers, add new ones, ... */
 114:Core/Src/freertos.c ****   /* USER CODE END RTOS_TIMERS */
 115:Core/Src/freertos.c **** 
 116:Core/Src/freertos.c ****   /* USER CODE BEGIN RTOS_QUEUES */
 117:Core/Src/freertos.c ****   /* add queues, ... */
 118:Core/Src/freertos.c ****   /* USER CODE END RTOS_QUEUES */
 119:Core/Src/freertos.c **** 
 120:Core/Src/freertos.c ****   /* Create the thread(s) */
 121:Core/Src/freertos.c ****   /* creation of defaultTask */
 122:Core/Src/freertos.c ****   defaultTaskHandle = osThreadNew(StartDefaultTask, NULL, &defaultTask_attributes);
 123:Core/Src/freertos.c **** 
 124:Core/Src/freertos.c ****   /* USER CODE BEGIN RTOS_THREADS */
 125:Core/Src/freertos.c ****   /* add threads, ... */
 126:Core/Src/freertos.c ****   /* USER CODE END RTOS_THREADS */
 127:Core/Src/freertos.c **** 
 128:Core/Src/freertos.c ****   /* USER CODE BEGIN RTOS_EVENTS */
 129:Core/Src/freertos.c ****   /* add events, ... */
 130:Core/Src/freertos.c ****   /* USER CODE END RTOS_EVENTS */
 131:Core/Src/freertos.c **** 
 132:Core/Src/freertos.c **** }
 133:Core/Src/freertos.c **** 
 134:Core/Src/freertos.c **** /* USER CODE BEGIN Header_StartDefaultTask */
 135:Core/Src/freertos.c **** /**
 136:Core/Src/freertos.c ****   * @brief  Function implementing the defaultTask thread.
 137:Core/Src/freertos.c ****   * @param  argument: Not used
 138:Core/Src/freertos.c ****   * @retval None
 139:Core/Src/freertos.c ****   */
 140:Core/Src/freertos.c **** /* USER CODE END Header_StartDefaultTask */
 141:Core/Src/freertos.c **** /* USER CODE BEGIN StartDefaultTask */
 142:Core/Src/freertos.c **** void error_loop(){}
 143:Core/Src/freertos.c **** 
 144:Core/Src/freertos.c **** #define RCCHECK(fn) { rcl_ret_t temp_rc = fn; if((temp_rc != RCL_RET_OK)){error_loop();}}
ARM GAS  /tmp/ccGdvDfj.s 			page 4


 145:Core/Src/freertos.c **** #define RCSOFTCHECK(fn) { rcl_ret_t temp_rc = fn; if((temp_rc != RCL_RET_OK)){error_loop();}}
 146:Core/Src/freertos.c **** 
 147:Core/Src/freertos.c **** void subscription_callback(const void *msgin) {
  29              		.loc 1 147 47 view -0
  30              		.cfi_startproc
  31              		@ args = 0, pretend = 0, frame = 0
  32              		@ frame_needed = 0, uses_anonymous_args = 0
  33              		@ link register save eliminated.
 148:Core/Src/freertos.c ****   const geometry_msgs__msg__Twist * msg = (const geometry_msgs__msg__Twist *)msgin;
  34              		.loc 1 148 3 view .LVU1
 149:Core/Src/freertos.c **** 
 150:Core/Src/freertos.c **** //  HAL_DAC_SetValue(&hdac, DAC_CHANNEL_1, DAC_ALIGN_12B_R, msg->linear.x);
 151:Core/Src/freertos.c **** }
  35              		.loc 1 151 1 is_stmt 0 view .LVU2
  36 0000 7047     		bx	lr
  37              		.cfi_endproc
  38              	.LFE151:
  40              		.section	.rodata.StartDefaultTask.str1.4,"aMS",%progbits,1
  41              		.align	2
  42              	.LC0:
  43 0000 4572726F 		.ascii	"Error on default allocators (line %d)\012\000"
  43      72206F6E 
  43      20646566 
  43      61756C74 
  43      20616C6C 
  44 0027 00       		.align	2
  45              	.LC1:
  46 0028 00       		.ascii	"\000"
  47 0029 000000   		.align	2
  48              	.LC2:
  49 002c 76656C6F 		.ascii	"velocity_node\000"
  49      63697479 
  49      5F6E6F64 
  49      6500
  50 003a 0000     		.align	2
  51              	.LC3:
  52 003c 636D645F 		.ascii	"cmd_vel\000"
  52      76656C00 
  53              		.section	.text.StartDefaultTask,"ax",%progbits
  54              		.align	1
  55              		.global	StartDefaultTask
  56              		.syntax unified
  57              		.thumb
  58              		.thumb_func
  60              	StartDefaultTask:
  61              	.LVL1:
  62              	.LFB152:
 152:Core/Src/freertos.c **** 
 153:Core/Src/freertos.c **** //uint32_t dac_value = 0;
 154:Core/Src/freertos.c **** //  for (dac_value = 250; dac_value <= 350; dac_value += 1) {
 155:Core/Src/freertos.c **** //      HAL_DAC_SetValue(&hdac, DAC_CHANNEL_1, DAC_ALIGN_12B_R, dac_value);
 156:Core/Src/freertos.c **** //      HAL_Delay(200);
 157:Core/Src/freertos.c **** //  }
 158:Core/Src/freertos.c **** //
 159:Core/Src/freertos.c **** //  for (dac_value = 350; dac_value >= 250; dac_value -= 1) {
 160:Core/Src/freertos.c **** //	  HAL_DAC_SetValue(&hdac, DAC_CHANNEL_1, DAC_ALIGN_12B_R, dac_value);
 161:Core/Src/freertos.c **** //	  HAL_Delay(200);
ARM GAS  /tmp/ccGdvDfj.s 			page 5


 162:Core/Src/freertos.c **** //  }
 163:Core/Src/freertos.c **** 
 164:Core/Src/freertos.c **** 
 165:Core/Src/freertos.c **** void StartDefaultTask(void *argument)
 166:Core/Src/freertos.c **** {
  63              		.loc 1 166 1 is_stmt 1 view -0
  64              		.cfi_startproc
  65              		@ args = 0, pretend = 0, frame = 312
  66              		@ frame_needed = 0, uses_anonymous_args = 0
  67              		.loc 1 166 1 is_stmt 0 view .LVU4
  68 0000 00B5     		push	{lr}
  69              	.LCFI0:
  70              		.cfi_def_cfa_offset 4
  71              		.cfi_offset 14, -4
  72 0002 D1B0     		sub	sp, sp, #324
  73              	.LCFI1:
  74              		.cfi_def_cfa_offset 328
 167:Core/Src/freertos.c **** 
 168:Core/Src/freertos.c ****   // micro-ROS configuration
 169:Core/Src/freertos.c **** 
 170:Core/Src/freertos.c ****   rmw_uros_set_custom_transport(
  75              		.loc 1 170 3 is_stmt 1 view .LVU5
  76 0004 294B     		ldr	r3, .L6
  77 0006 0193     		str	r3, [sp, #4]
  78 0008 294B     		ldr	r3, .L6+4
  79 000a 0093     		str	r3, [sp]
  80 000c 294B     		ldr	r3, .L6+8
  81 000e 2A4A     		ldr	r2, .L6+12
  82 0010 2A49     		ldr	r1, .L6+16
  83 0012 0120     		movs	r0, #1
  84              	.LVL2:
  85              		.loc 1 170 3 is_stmt 0 view .LVU6
  86 0014 FFF7FEFF 		bl	rmw_uros_set_custom_transport
  87              	.LVL3:
 171:Core/Src/freertos.c ****     true,
 172:Core/Src/freertos.c ****     (void *) &huart3,
 173:Core/Src/freertos.c ****     cubemx_transport_open,
 174:Core/Src/freertos.c ****     cubemx_transport_close,
 175:Core/Src/freertos.c ****     cubemx_transport_write,
 176:Core/Src/freertos.c ****     cubemx_transport_read);
 177:Core/Src/freertos.c **** 
 178:Core/Src/freertos.c ****   rcl_allocator_t freeRTOS_allocator = rcutils_get_zero_initialized_allocator();
  88              		.loc 1 178 3 is_stmt 1 view .LVU7
  89              		.loc 1 178 40 is_stmt 0 view .LVU8
  90 0018 4BA8     		add	r0, sp, #300
  91 001a FFF7FEFF 		bl	rcutils_get_zero_initialized_allocator
  92              	.LVL4:
 179:Core/Src/freertos.c ****   freeRTOS_allocator.allocate = microros_allocate;
  93              		.loc 1 179 3 is_stmt 1 view .LVU9
  94              		.loc 1 179 31 is_stmt 0 view .LVU10
  95 001e 284B     		ldr	r3, .L6+20
  96 0020 4B93     		str	r3, [sp, #300]
 180:Core/Src/freertos.c ****   freeRTOS_allocator.deallocate = microros_deallocate;
  97              		.loc 1 180 3 is_stmt 1 view .LVU11
  98              		.loc 1 180 33 is_stmt 0 view .LVU12
  99 0022 284B     		ldr	r3, .L6+24
 100 0024 4C93     		str	r3, [sp, #304]
ARM GAS  /tmp/ccGdvDfj.s 			page 6


 181:Core/Src/freertos.c ****   freeRTOS_allocator.reallocate = microros_reallocate;
 101              		.loc 1 181 3 is_stmt 1 view .LVU13
 102              		.loc 1 181 33 is_stmt 0 view .LVU14
 103 0026 284B     		ldr	r3, .L6+28
 104 0028 4D93     		str	r3, [sp, #308]
 182:Core/Src/freertos.c ****   freeRTOS_allocator.zero_allocate =  microros_zero_allocate;
 105              		.loc 1 182 3 is_stmt 1 view .LVU15
 106              		.loc 1 182 36 is_stmt 0 view .LVU16
 107 002a 284B     		ldr	r3, .L6+32
 108 002c 4E93     		str	r3, [sp, #312]
 183:Core/Src/freertos.c **** 
 184:Core/Src/freertos.c ****   if (!rcutils_set_default_allocator(&freeRTOS_allocator)) {
 109              		.loc 1 184 3 is_stmt 1 view .LVU17
 110              		.loc 1 184 8 is_stmt 0 view .LVU18
 111 002e 4BA8     		add	r0, sp, #300
 112 0030 FFF7FEFF 		bl	rcutils_set_default_allocator
 113              	.LVL5:
 114              		.loc 1 184 6 view .LVU19
 115 0034 0028     		cmp	r0, #0
 116 0036 33D0     		beq	.L5
 117              	.L3:
 185:Core/Src/freertos.c ****       printf("Error on default allocators (line %d)\n", __LINE__); 
 186:Core/Src/freertos.c ****   }
 187:Core/Src/freertos.c **** 
 188:Core/Src/freertos.c ****   // micro-ROS app
 189:Core/Src/freertos.c **** 
 190:Core/Src/freertos.c ****   	  rcl_subscription_t subscriber;
 118              		.loc 1 190 6 is_stmt 1 view .LVU20
 191:Core/Src/freertos.c ****   	  geometry_msgs__msg__Twist msg;
 119              		.loc 1 191 6 view .LVU21
 192:Core/Src/freertos.c ****   	  rclc_executor_t executor;
 120              		.loc 1 192 6 view .LVU22
 193:Core/Src/freertos.c ****   	  rcl_allocator_t allocator;
 121              		.loc 1 193 6 view .LVU23
 194:Core/Src/freertos.c ****   	  rclc_support_t support;
 122              		.loc 1 194 6 view .LVU24
 195:Core/Src/freertos.c ****   	  rcl_node_t node;
 123              		.loc 1 195 6 view .LVU25
 196:Core/Src/freertos.c **** 
 197:Core/Src/freertos.c ****   	  allocator = rcl_get_default_allocator();
 124              		.loc 1 197 6 view .LVU26
 125              		.loc 1 197 18 is_stmt 0 view .LVU27
 126 0038 02A8     		add	r0, sp, #8
 127 003a FFF7FEFF 		bl	rcutils_get_default_allocator
 128              	.LVL6:
 129 003e 0DF15C0E 		add	lr, sp, #92
 130 0042 0DF1080C 		add	ip, sp, #8
 131 0046 BCE80F00 		ldmia	ip!, {r0, r1, r2, r3}
 132 004a AEE80F00 		stmia	lr!, {r0, r1, r2, r3}
 133 004e DCF80030 		ldr	r3, [ip]
 134 0052 CEF80030 		str	r3, [lr]
 135              	.LBB2:
 198:Core/Src/freertos.c **** 
 199:Core/Src/freertos.c ****   	  //create init_options
 200:Core/Src/freertos.c ****   	  RCCHECK(rclc_support_init(&support, 0, NULL, &allocator));
 136              		.loc 1 200 6 is_stmt 1 view .LVU28
 137 0056 17AB     		add	r3, sp, #92
ARM GAS  /tmp/ccGdvDfj.s 			page 7


 138 0058 0022     		movs	r2, #0
 139 005a 1146     		mov	r1, r2
 140 005c 0AA8     		add	r0, sp, #40
 141 005e FFF7FEFF 		bl	rclc_support_init
 142              	.LVL7:
 143              		.loc 1 200 6 view .LVU29
 144              	.LBE2:
 145              		.loc 1 200 63 view .LVU30
 146              	.LBB3:
 201:Core/Src/freertos.c **** 
 202:Core/Src/freertos.c ****   	// create node
 203:Core/Src/freertos.c ****   	  RCCHECK(rclc_node_init_default(&node, "velocity_node", "", &support));
 147              		.loc 1 203 6 view .LVU31
 148 0062 0AAB     		add	r3, sp, #40
 149 0064 1A4A     		ldr	r2, .L6+36
 150 0066 1B49     		ldr	r1, .L6+40
 151 0068 08A8     		add	r0, sp, #32
 152 006a FFF7FEFF 		bl	rclc_node_init_default
 153              	.LVL8:
 154              		.loc 1 203 6 view .LVU32
 155              	.LBE3:
 156              		.loc 1 203 75 view .LVU33
 157              	.LBB4:
 204:Core/Src/freertos.c **** 
 205:Core/Src/freertos.c ****   	// create subscriber
 206:Core/Src/freertos.c ****   	  RCCHECK(rclc_subscription_init_default(
 158              		.loc 1 206 6 view .LVU34
 159 006e FFF7FEFF 		bl	rosidl_typesupport_c__get_message_type_support_handle__geometry_msgs__msg__Twist
 160              	.LVL9:
 161 0072 0246     		mov	r2, r0
 162 0074 184B     		ldr	r3, .L6+44
 163 0076 08A9     		add	r1, sp, #32
 164 0078 4AA8     		add	r0, sp, #296
 165 007a FFF7FEFF 		bl	rclc_subscription_init_default
 166              	.LVL10:
 167              		.loc 1 206 6 view .LVU35
 168              	.LBE4:
 207:Core/Src/freertos.c ****   			  &subscriber,
 208:Core/Src/freertos.c **** 			  &node,
 209:Core/Src/freertos.c **** 			  ROSIDL_GET_MSG_TYPE_SUPPORT(geometry_msgs, msg, Twist),
 210:Core/Src/freertos.c **** 			  "cmd_vel"));
 169              		.loc 1 210 17 view .LVU36
 170              	.LBB5:
 211:Core/Src/freertos.c **** 
 212:Core/Src/freertos.c ****   	  // create executor
 213:Core/Src/freertos.c ****   	  RCCHECK(rclc_executor_init(&executor, &support.context, 1, &allocator));
 171              		.loc 1 213 6 view .LVU37
 172 007e 17AB     		add	r3, sp, #92
 173 0080 0122     		movs	r2, #1
 174 0082 0AA9     		add	r1, sp, #40
 175 0084 1CA8     		add	r0, sp, #112
 176 0086 FFF7FEFF 		bl	rclc_executor_init
 177              	.LVL11:
 178              		.loc 1 213 6 view .LVU38
 179              	.LBE5:
 180              		.loc 1 213 77 view .LVU39
 181              	.LBB6:
ARM GAS  /tmp/ccGdvDfj.s 			page 8


 214:Core/Src/freertos.c ****   	  RCCHECK(rclc_executor_add_subscription(&executor, &subscriber, &msg, &subscription_callback, O
 182              		.loc 1 214 6 view .LVU40
 183 008a 0023     		movs	r3, #0
 184 008c 0093     		str	r3, [sp]
 185 008e 134B     		ldr	r3, .L6+48
 186 0090 3EAA     		add	r2, sp, #248
 187 0092 4AA9     		add	r1, sp, #296
 188 0094 1CA8     		add	r0, sp, #112
 189 0096 FFF7FEFF 		bl	rclc_executor_add_subscription
 190              	.LVL12:
 191              		.loc 1 214 6 view .LVU41
 192              	.LBE6:
 193              		.loc 1 214 112 view .LVU42
 215:Core/Src/freertos.c ****   	  /* USER CODE END StartDefaultTask */
 216:Core/Src/freertos.c **** }
 194              		.loc 1 216 1 is_stmt 0 view .LVU43
 195 009a 51B0     		add	sp, sp, #324
 196              	.LCFI2:
 197              		.cfi_remember_state
 198              		.cfi_def_cfa_offset 4
 199              		@ sp needed
 200 009c 5DF804FB 		ldr	pc, [sp], #4
 201              	.L5:
 202              	.LCFI3:
 203              		.cfi_restore_state
 185:Core/Src/freertos.c ****   }
 204              		.loc 1 185 7 is_stmt 1 view .LVU44
 205 00a0 B921     		movs	r1, #185
 206 00a2 0F48     		ldr	r0, .L6+52
 207 00a4 FFF7FEFF 		bl	printf
 208              	.LVL13:
 209 00a8 C6E7     		b	.L3
 210              	.L7:
 211 00aa 00BF     		.align	2
 212              	.L6:
 213 00ac 00000000 		.word	cubemx_transport_read
 214 00b0 00000000 		.word	cubemx_transport_write
 215 00b4 00000000 		.word	cubemx_transport_close
 216 00b8 00000000 		.word	cubemx_transport_open
 217 00bc 00000000 		.word	huart3
 218 00c0 00000000 		.word	microros_allocate
 219 00c4 00000000 		.word	microros_deallocate
 220 00c8 00000000 		.word	microros_reallocate
 221 00cc 00000000 		.word	microros_zero_allocate
 222 00d0 28000000 		.word	.LC1
 223 00d4 2C000000 		.word	.LC2
 224 00d8 3C000000 		.word	.LC3
 225 00dc 00000000 		.word	subscription_callback
 226 00e0 00000000 		.word	.LC0
 227              		.cfi_endproc
 228              	.LFE152:
 230              		.section	.text.MX_FREERTOS_Init,"ax",%progbits
 231              		.align	1
 232              		.global	MX_FREERTOS_Init
 233              		.syntax unified
 234              		.thumb
 235              		.thumb_func
ARM GAS  /tmp/ccGdvDfj.s 			page 9


 237              	MX_FREERTOS_Init:
 238              	.LFB149:
  99:Core/Src/freertos.c ****   /* USER CODE BEGIN Init */
 239              		.loc 1 99 29 view -0
 240              		.cfi_startproc
 241              		@ args = 0, pretend = 0, frame = 0
 242              		@ frame_needed = 0, uses_anonymous_args = 0
 243 0000 08B5     		push	{r3, lr}
 244              	.LCFI4:
 245              		.cfi_def_cfa_offset 8
 246              		.cfi_offset 3, -8
 247              		.cfi_offset 14, -4
 122:Core/Src/freertos.c **** 
 248              		.loc 1 122 3 view .LVU46
 122:Core/Src/freertos.c **** 
 249              		.loc 1 122 23 is_stmt 0 view .LVU47
 250 0002 044A     		ldr	r2, .L10
 251 0004 0021     		movs	r1, #0
 252 0006 0448     		ldr	r0, .L10+4
 253 0008 FFF7FEFF 		bl	osThreadNew
 254              	.LVL14:
 122:Core/Src/freertos.c **** 
 255              		.loc 1 122 21 view .LVU48
 256 000c 034B     		ldr	r3, .L10+8
 257 000e 1860     		str	r0, [r3]
 132:Core/Src/freertos.c **** 
 258              		.loc 1 132 1 view .LVU49
 259 0010 08BD     		pop	{r3, pc}
 260              	.L11:
 261 0012 00BF     		.align	2
 262              	.L10:
 263 0014 00000000 		.word	.LANCHOR0
 264 0018 00000000 		.word	StartDefaultTask
 265 001c 00000000 		.word	.LANCHOR1
 266              		.cfi_endproc
 267              	.LFE149:
 269              		.section	.text.error_loop,"ax",%progbits
 270              		.align	1
 271              		.global	error_loop
 272              		.syntax unified
 273              		.thumb
 274              		.thumb_func
 276              	error_loop:
 277              	.LFB150:
 142:Core/Src/freertos.c **** 
 278              		.loc 1 142 18 is_stmt 1 view -0
 279              		.cfi_startproc
 280              		@ args = 0, pretend = 0, frame = 0
 281              		@ frame_needed = 0, uses_anonymous_args = 0
 282              		@ link register save eliminated.
 142:Core/Src/freertos.c **** 
 283              		.loc 1 142 19 view .LVU51
 284 0000 7047     		bx	lr
 285              		.cfi_endproc
 286              	.LFE150:
 288              		.global	defaultTask_attributes
 289              		.section	.rodata.str1.4,"aMS",%progbits,1
ARM GAS  /tmp/ccGdvDfj.s 			page 10


 290              		.align	2
 291              	.LC4:
 292 0000 64656661 		.ascii	"defaultTask\000"
 292      756C7454 
 292      61736B00 
 293              		.global	defaultTaskControlBlock
 294              		.global	defaultTaskBuffer
 295              		.global	defaultTaskHandle
 296              		.section	.bss.defaultTaskBuffer,"aw",%nobits
 297              		.align	2
 300              	defaultTaskBuffer:
 301 0000 00000000 		.space	12000
 301      00000000 
 301      00000000 
 301      00000000 
 301      00000000 
 302              		.section	.bss.defaultTaskControlBlock,"aw",%nobits
 303              		.align	3
 306              	defaultTaskControlBlock:
 307 0000 00000000 		.space	384
 307      00000000 
 307      00000000 
 307      00000000 
 307      00000000 
 308              		.section	.bss.defaultTaskHandle,"aw",%nobits
 309              		.align	2
 310              		.set	.LANCHOR1,. + 0
 313              	defaultTaskHandle:
 314 0000 00000000 		.space	4
 315              		.section	.rodata.defaultTask_attributes,"a"
 316              		.align	2
 317              		.set	.LANCHOR0,. + 0
 320              	defaultTask_attributes:
 321 0000 00000000 		.word	.LC4
 322 0004 00000000 		.space	4
 323 0008 00000000 		.word	defaultTaskControlBlock
 324 000c 80010000 		.word	384
 325 0010 00000000 		.word	defaultTaskBuffer
 326 0014 E02E0000 		.word	12000
 327 0018 18000000 		.word	24
 328 001c 00000000 		.space	8
 328      00000000 
 329              		.text
 330              	.Letext0:
 331              		.file 2 "/home/romet/st/stm32cubeide_1.13.2_2/plugins/com.st.stm32cube.ide.mcu.externaltools.gnu-t
 332              		.file 3 "/home/romet/st/stm32cubeide_1.13.2_2/plugins/com.st.stm32cube.ide.mcu.externaltools.gnu-t
 333              		.file 4 "/home/romet/st/stm32cubeide_1.13.2_2/plugins/com.st.stm32cube.ide.mcu.externaltools.gnu-t
 334              		.file 5 "Middlewares/Third_Party/FreeRTOS/Source/portable/GCC/ARM_CM7/r0p1/portmacro.h"
 335              		.file 6 "/home/romet/st/stm32cubeide_1.13.2_2/plugins/com.st.stm32cube.ide.mcu.externaltools.gnu-t
 336              		.file 7 "/home/romet/st/stm32cubeide_1.13.2_2/plugins/com.st.stm32cube.ide.mcu.externaltools.gnu-t
 337              		.file 8 "/home/romet/st/stm32cubeide_1.13.2_2/plugins/com.st.stm32cube.ide.mcu.externaltools.gnu-t
 338              		.file 9 "Middlewares/Third_Party/FreeRTOS/Source/include/FreeRTOS.h"
 339              		.file 10 "Drivers/CMSIS/Device/ST/STM32F7xx/Include/stm32f767xx.h"
 340              		.file 11 "Drivers/STM32F7xx_HAL_Driver/Inc/stm32f7xx_hal_def.h"
 341              		.file 12 "Drivers/STM32F7xx_HAL_Driver/Inc/stm32f7xx_hal_dma.h"
 342              		.file 13 "Drivers/STM32F7xx_HAL_Driver/Inc/stm32f7xx_hal_uart.h"
 343              		.file 14 "Middlewares/Third_Party/FreeRTOS/Source/CMSIS_RTOS_V2/cmsis_os2.h"
ARM GAS  /tmp/ccGdvDfj.s 			page 11


 344              		.file 15 "micro_ros_stm32cubemx_utils/microros_static_library/libmicroros/microros_include/rcutils
 345              		.file 16 "micro_ros_stm32cubemx_utils/microros_static_library/libmicroros/microros_include/rcl/all
 346              		.file 17 "micro_ros_stm32cubemx_utils/microros_static_library/libmicroros/microros_include/rmw/ret
 347              		.file 18 "micro_ros_stm32cubemx_utils/microros_static_library/libmicroros/microros_include/rcutils
 348              		.file 19 "micro_ros_stm32cubemx_utils/microros_static_library/libmicroros/microros_include/rmw/tim
 349              		.file 20 "micro_ros_stm32cubemx_utils/microros_static_library/libmicroros/microros_include/rmw/typ
 350              		.file 21 "micro_ros_stm32cubemx_utils/microros_static_library/libmicroros/microros_include/rcl/typ
 351              		.file 22 "micro_ros_stm32cubemx_utils/microros_static_library/libmicroros/microros_include/rcl/con
 352              		.file 23 "micro_ros_stm32cubemx_utils/microros_static_library/libmicroros/microros_include/rcl/gua
 353              		.file 24 "micro_ros_stm32cubemx_utils/microros_static_library/libmicroros/microros_include/rcl/nod
 354              		.file 25 "micro_ros_stm32cubemx_utils/microros_static_library/libmicroros/microros_include/rosidl_
 355              		.file 26 "micro_ros_stm32cubemx_utils/microros_static_library/libmicroros/microros_include/rcl/tim
 356              		.file 27 "micro_ros_stm32cubemx_utils/microros_static_library/libmicroros/microros_include/rcl/sub
 357              		.file 28 "micro_ros_stm32cubemx_utils/microros_static_library/libmicroros/microros_include/rcl/cli
 358              		.file 29 "micro_ros_stm32cubemx_utils/microros_static_library/libmicroros/microros_include/rcl/ser
 359              		.file 30 "micro_ros_stm32cubemx_utils/microros_static_library/libmicroros/microros_include/rmw/qos
 360              		.file 31 "micro_ros_stm32cubemx_utils/microros_static_library/libmicroros/microros_include/rcl/tim
 361              		.file 32 "micro_ros_stm32cubemx_utils/microros_static_library/libmicroros/microros_include/rcl/eve
 362              		.file 33 "micro_ros_stm32cubemx_utils/microros_static_library/libmicroros/microros_include/rcl/wai
 363              		.file 34 "micro_ros_stm32cubemx_utils/microros_static_library/libmicroros/microros_include/rclc/ty
 364              		.file 35 "micro_ros_stm32cubemx_utils/microros_static_library/libmicroros/microros_include/unique_
 365              		.file 36 "micro_ros_stm32cubemx_utils/microros_static_library/libmicroros/microros_include/builtin
 366              		.file 37 "micro_ros_stm32cubemx_utils/microros_static_library/libmicroros/microros_include/action_
 367              		.file 38 "micro_ros_stm32cubemx_utils/microros_static_library/libmicroros/microros_include/action_
 368              		.file 39 "micro_ros_stm32cubemx_utils/microros_static_library/libmicroros/microros_include/rcl_act
 369              		.file 40 "micro_ros_stm32cubemx_utils/microros_static_library/libmicroros/microros_include/rcl_act
 370              		.file 41 "micro_ros_stm32cubemx_utils/microros_static_library/libmicroros/microros_include/rcl_act
 371              		.file 42 "micro_ros_stm32cubemx_utils/microros_static_library/libmicroros/microros_include/rcl_act
 372              		.file 43 "micro_ros_stm32cubemx_utils/microros_static_library/libmicroros/microros_include/rclc/ac
 373              		.file 44 "micro_ros_stm32cubemx_utils/microros_static_library/libmicroros/microros_include/rclc/ac
 374              		.file 45 "micro_ros_stm32cubemx_utils/microros_static_library/libmicroros/microros_include/rclc/ac
 375              		.file 46 "micro_ros_stm32cubemx_utils/microros_static_library/libmicroros/microros_include/rclc/ex
 376              		.file 47 "micro_ros_stm32cubemx_utils/microros_static_library/libmicroros/microros_include/rclc/ex
 377              		.file 48 "micro_ros_stm32cubemx_utils/microros_static_library/libmicroros/microros_include/uxr/cli
 378              		.file 49 "micro_ros_stm32cubemx_utils/microros_static_library/libmicroros/microros_include/uxr/cli
 379              		.file 50 "micro_ros_stm32cubemx_utils/microros_static_library/libmicroros/microros_include/uxr/cli
 380              		.file 51 "micro_ros_stm32cubemx_utils/microros_static_library/libmicroros/microros_include/geometr
 381              		.file 52 "micro_ros_stm32cubemx_utils/microros_static_library/libmicroros/microros_include/geometr
 382              		.file 53 "Core/Inc/usart.h"
 383              		.file 54 "micro_ros_stm32cubemx_utils/microros_static_library/libmicroros/microros_include/rclc/su
 384              		.file 55 "micro_ros_stm32cubemx_utils/microros_static_library/libmicroros/microros_include/rclc/no
 385              		.file 56 "micro_ros_stm32cubemx_utils/microros_static_library/libmicroros/microros_include/rclc/in
 386              		.file 57 "/home/romet/st/stm32cubeide_1.13.2_2/plugins/com.st.stm32cube.ide.mcu.externaltools.gnu-
 387              		.file 58 "micro_ros_stm32cubemx_utils/microros_static_library/libmicroros/microros_include/geometr
 388              		.file 59 "micro_ros_stm32cubemx_utils/microros_static_library/libmicroros/microros_include/rmw_mic
ARM GAS  /tmp/ccGdvDfj.s 			page 12

