ARM GAS  /tmp/ccLyiet9.s 			page 1


   1              		.cpu cortex-m7
   2              		.arch armv7e-m
   3              		.fpu fpv5-d16
   4              		.eabi_attribute 28, 1
   5              		.eabi_attribute 20, 1
   6              		.eabi_attribute 21, 1
   7              		.eabi_attribute 23, 3
   8              		.eabi_attribute 24, 1
   9              		.eabi_attribute 25, 1
  10              		.eabi_attribute 26, 1
  11              		.eabi_attribute 30, 1
  12              		.eabi_attribute 34, 1
  13              		.eabi_attribute 18, 4
  14              		.file	"stm32f7xx_hal_pwr_ex.c"
  15              		.text
  16              	.Ltext0:
  17              		.cfi_sections	.debug_frame
  18              		.section	.text.HAL_PWREx_EnableBkUpReg,"ax",%progbits
  19              		.align	1
  20              		.global	HAL_PWREx_EnableBkUpReg
  21              		.syntax unified
  22              		.thumb
  23              		.thumb_func
  25              	HAL_PWREx_EnableBkUpReg:
  26              	.LFB141:
  27              		.file 1 "Drivers/STM32F7xx_HAL_Driver/Src/stm32f7xx_hal_pwr_ex.c"
   1:Drivers/STM32F7xx_HAL_Driver/Src/stm32f7xx_hal_pwr_ex.c **** /**
   2:Drivers/STM32F7xx_HAL_Driver/Src/stm32f7xx_hal_pwr_ex.c ****   ******************************************************************************
   3:Drivers/STM32F7xx_HAL_Driver/Src/stm32f7xx_hal_pwr_ex.c ****   * @file    stm32f7xx_hal_pwr_ex.c
   4:Drivers/STM32F7xx_HAL_Driver/Src/stm32f7xx_hal_pwr_ex.c ****   * @author  MCD Application Team
   5:Drivers/STM32F7xx_HAL_Driver/Src/stm32f7xx_hal_pwr_ex.c ****   * @brief   Extended PWR HAL module driver.
   6:Drivers/STM32F7xx_HAL_Driver/Src/stm32f7xx_hal_pwr_ex.c ****   *          This file provides firmware functions to manage the following 
   7:Drivers/STM32F7xx_HAL_Driver/Src/stm32f7xx_hal_pwr_ex.c ****   *          functionalities of PWR extension peripheral:           
   8:Drivers/STM32F7xx_HAL_Driver/Src/stm32f7xx_hal_pwr_ex.c ****   *           + Peripheral Extended features functions
   9:Drivers/STM32F7xx_HAL_Driver/Src/stm32f7xx_hal_pwr_ex.c ****   *         
  10:Drivers/STM32F7xx_HAL_Driver/Src/stm32f7xx_hal_pwr_ex.c ****   ******************************************************************************
  11:Drivers/STM32F7xx_HAL_Driver/Src/stm32f7xx_hal_pwr_ex.c ****   * @attention
  12:Drivers/STM32F7xx_HAL_Driver/Src/stm32f7xx_hal_pwr_ex.c ****   *
  13:Drivers/STM32F7xx_HAL_Driver/Src/stm32f7xx_hal_pwr_ex.c ****   * Copyright (c) 2017 STMicroelectronics.
  14:Drivers/STM32F7xx_HAL_Driver/Src/stm32f7xx_hal_pwr_ex.c ****   * All rights reserved.
  15:Drivers/STM32F7xx_HAL_Driver/Src/stm32f7xx_hal_pwr_ex.c ****   *
  16:Drivers/STM32F7xx_HAL_Driver/Src/stm32f7xx_hal_pwr_ex.c ****   * This software is licensed under terms that can be found in the LICENSE file
  17:Drivers/STM32F7xx_HAL_Driver/Src/stm32f7xx_hal_pwr_ex.c ****   * in the root directory of this software component.
  18:Drivers/STM32F7xx_HAL_Driver/Src/stm32f7xx_hal_pwr_ex.c ****   * If no LICENSE file comes with this software, it is provided AS-IS.
  19:Drivers/STM32F7xx_HAL_Driver/Src/stm32f7xx_hal_pwr_ex.c ****   *
  20:Drivers/STM32F7xx_HAL_Driver/Src/stm32f7xx_hal_pwr_ex.c ****   ******************************************************************************
  21:Drivers/STM32F7xx_HAL_Driver/Src/stm32f7xx_hal_pwr_ex.c ****   */
  22:Drivers/STM32F7xx_HAL_Driver/Src/stm32f7xx_hal_pwr_ex.c **** 
  23:Drivers/STM32F7xx_HAL_Driver/Src/stm32f7xx_hal_pwr_ex.c **** /* Includes ------------------------------------------------------------------*/
  24:Drivers/STM32F7xx_HAL_Driver/Src/stm32f7xx_hal_pwr_ex.c **** #include "stm32f7xx_hal.h"
  25:Drivers/STM32F7xx_HAL_Driver/Src/stm32f7xx_hal_pwr_ex.c **** 
  26:Drivers/STM32F7xx_HAL_Driver/Src/stm32f7xx_hal_pwr_ex.c **** /** @addtogroup STM32F7xx_HAL_Driver
  27:Drivers/STM32F7xx_HAL_Driver/Src/stm32f7xx_hal_pwr_ex.c ****   * @{
  28:Drivers/STM32F7xx_HAL_Driver/Src/stm32f7xx_hal_pwr_ex.c ****   */
  29:Drivers/STM32F7xx_HAL_Driver/Src/stm32f7xx_hal_pwr_ex.c **** 
  30:Drivers/STM32F7xx_HAL_Driver/Src/stm32f7xx_hal_pwr_ex.c **** /** @defgroup PWREx PWREx
  31:Drivers/STM32F7xx_HAL_Driver/Src/stm32f7xx_hal_pwr_ex.c ****   * @brief PWR HAL module driver
ARM GAS  /tmp/ccLyiet9.s 			page 2


  32:Drivers/STM32F7xx_HAL_Driver/Src/stm32f7xx_hal_pwr_ex.c ****   * @{
  33:Drivers/STM32F7xx_HAL_Driver/Src/stm32f7xx_hal_pwr_ex.c ****   */
  34:Drivers/STM32F7xx_HAL_Driver/Src/stm32f7xx_hal_pwr_ex.c **** 
  35:Drivers/STM32F7xx_HAL_Driver/Src/stm32f7xx_hal_pwr_ex.c **** #ifdef HAL_PWR_MODULE_ENABLED
  36:Drivers/STM32F7xx_HAL_Driver/Src/stm32f7xx_hal_pwr_ex.c **** 
  37:Drivers/STM32F7xx_HAL_Driver/Src/stm32f7xx_hal_pwr_ex.c **** /* Private typedef -----------------------------------------------------------*/
  38:Drivers/STM32F7xx_HAL_Driver/Src/stm32f7xx_hal_pwr_ex.c **** /* Private define ------------------------------------------------------------*/
  39:Drivers/STM32F7xx_HAL_Driver/Src/stm32f7xx_hal_pwr_ex.c **** /** @addtogroup PWREx_Private_Constants
  40:Drivers/STM32F7xx_HAL_Driver/Src/stm32f7xx_hal_pwr_ex.c ****   * @{
  41:Drivers/STM32F7xx_HAL_Driver/Src/stm32f7xx_hal_pwr_ex.c ****   */    
  42:Drivers/STM32F7xx_HAL_Driver/Src/stm32f7xx_hal_pwr_ex.c **** #define PWR_OVERDRIVE_TIMEOUT_VALUE  1000
  43:Drivers/STM32F7xx_HAL_Driver/Src/stm32f7xx_hal_pwr_ex.c **** #define PWR_UDERDRIVE_TIMEOUT_VALUE  1000
  44:Drivers/STM32F7xx_HAL_Driver/Src/stm32f7xx_hal_pwr_ex.c **** #define PWR_BKPREG_TIMEOUT_VALUE     1000
  45:Drivers/STM32F7xx_HAL_Driver/Src/stm32f7xx_hal_pwr_ex.c **** #define PWR_VOSRDY_TIMEOUT_VALUE     1000
  46:Drivers/STM32F7xx_HAL_Driver/Src/stm32f7xx_hal_pwr_ex.c **** /**
  47:Drivers/STM32F7xx_HAL_Driver/Src/stm32f7xx_hal_pwr_ex.c ****   * @}
  48:Drivers/STM32F7xx_HAL_Driver/Src/stm32f7xx_hal_pwr_ex.c ****   */
  49:Drivers/STM32F7xx_HAL_Driver/Src/stm32f7xx_hal_pwr_ex.c ****     
  50:Drivers/STM32F7xx_HAL_Driver/Src/stm32f7xx_hal_pwr_ex.c **** /* Private macro -------------------------------------------------------------*/
  51:Drivers/STM32F7xx_HAL_Driver/Src/stm32f7xx_hal_pwr_ex.c **** /* Private variables ---------------------------------------------------------*/
  52:Drivers/STM32F7xx_HAL_Driver/Src/stm32f7xx_hal_pwr_ex.c **** /* Private function prototypes -----------------------------------------------*/
  53:Drivers/STM32F7xx_HAL_Driver/Src/stm32f7xx_hal_pwr_ex.c **** /* Private functions ---------------------------------------------------------*/
  54:Drivers/STM32F7xx_HAL_Driver/Src/stm32f7xx_hal_pwr_ex.c **** /** @defgroup PWREx_Exported_Functions PWREx Exported Functions
  55:Drivers/STM32F7xx_HAL_Driver/Src/stm32f7xx_hal_pwr_ex.c ****   *  @{
  56:Drivers/STM32F7xx_HAL_Driver/Src/stm32f7xx_hal_pwr_ex.c ****   */
  57:Drivers/STM32F7xx_HAL_Driver/Src/stm32f7xx_hal_pwr_ex.c **** 
  58:Drivers/STM32F7xx_HAL_Driver/Src/stm32f7xx_hal_pwr_ex.c **** /** @defgroup PWREx_Exported_Functions_Group1 Peripheral Extended features functions 
  59:Drivers/STM32F7xx_HAL_Driver/Src/stm32f7xx_hal_pwr_ex.c ****   *  @brief Peripheral Extended features functions 
  60:Drivers/STM32F7xx_HAL_Driver/Src/stm32f7xx_hal_pwr_ex.c ****   *
  61:Drivers/STM32F7xx_HAL_Driver/Src/stm32f7xx_hal_pwr_ex.c **** @verbatim   
  62:Drivers/STM32F7xx_HAL_Driver/Src/stm32f7xx_hal_pwr_ex.c **** 
  63:Drivers/STM32F7xx_HAL_Driver/Src/stm32f7xx_hal_pwr_ex.c ****  ===============================================================================
  64:Drivers/STM32F7xx_HAL_Driver/Src/stm32f7xx_hal_pwr_ex.c ****                  ##### Peripheral extended features functions #####
  65:Drivers/STM32F7xx_HAL_Driver/Src/stm32f7xx_hal_pwr_ex.c ****  ===============================================================================
  66:Drivers/STM32F7xx_HAL_Driver/Src/stm32f7xx_hal_pwr_ex.c **** 
  67:Drivers/STM32F7xx_HAL_Driver/Src/stm32f7xx_hal_pwr_ex.c ****     *** Main and Backup Regulators configuration ***
  68:Drivers/STM32F7xx_HAL_Driver/Src/stm32f7xx_hal_pwr_ex.c ****     ================================================
  69:Drivers/STM32F7xx_HAL_Driver/Src/stm32f7xx_hal_pwr_ex.c ****     [..] 
  70:Drivers/STM32F7xx_HAL_Driver/Src/stm32f7xx_hal_pwr_ex.c ****       (+) The backup domain includes 4 Kbytes of backup SRAM accessible only from 
  71:Drivers/STM32F7xx_HAL_Driver/Src/stm32f7xx_hal_pwr_ex.c ****           the CPU, and address in 32-bit, 16-bit or 8-bit mode. Its content is 
  72:Drivers/STM32F7xx_HAL_Driver/Src/stm32f7xx_hal_pwr_ex.c ****           retained even in Standby or VBAT mode when the low power backup regulator
  73:Drivers/STM32F7xx_HAL_Driver/Src/stm32f7xx_hal_pwr_ex.c ****           is enabled. It can be considered as an internal EEPROM when VBAT is 
  74:Drivers/STM32F7xx_HAL_Driver/Src/stm32f7xx_hal_pwr_ex.c ****           always present. You can use the HAL_PWREx_EnableBkUpReg() function to 
  75:Drivers/STM32F7xx_HAL_Driver/Src/stm32f7xx_hal_pwr_ex.c ****           enable the low power backup regulator. 
  76:Drivers/STM32F7xx_HAL_Driver/Src/stm32f7xx_hal_pwr_ex.c **** 
  77:Drivers/STM32F7xx_HAL_Driver/Src/stm32f7xx_hal_pwr_ex.c ****       (+) When the backup domain is supplied by VDD (analog switch connected to VDD) 
  78:Drivers/STM32F7xx_HAL_Driver/Src/stm32f7xx_hal_pwr_ex.c ****           the backup SRAM is powered from VDD which replaces the VBAT power supply to 
  79:Drivers/STM32F7xx_HAL_Driver/Src/stm32f7xx_hal_pwr_ex.c ****           save battery life.
  80:Drivers/STM32F7xx_HAL_Driver/Src/stm32f7xx_hal_pwr_ex.c **** 
  81:Drivers/STM32F7xx_HAL_Driver/Src/stm32f7xx_hal_pwr_ex.c ****       (+) The backup SRAM is not mass erased by a tamper event. It is read 
  82:Drivers/STM32F7xx_HAL_Driver/Src/stm32f7xx_hal_pwr_ex.c ****           protected to prevent confidential data, such as cryptographic private 
  83:Drivers/STM32F7xx_HAL_Driver/Src/stm32f7xx_hal_pwr_ex.c ****           key, from being accessed. The backup SRAM can be erased only through 
  84:Drivers/STM32F7xx_HAL_Driver/Src/stm32f7xx_hal_pwr_ex.c ****           the Flash interface when a protection level change from level 1 to 
  85:Drivers/STM32F7xx_HAL_Driver/Src/stm32f7xx_hal_pwr_ex.c ****           level 0 is requested. 
  86:Drivers/STM32F7xx_HAL_Driver/Src/stm32f7xx_hal_pwr_ex.c ****       -@- Refer to the description of Read protection (RDP) in the Flash 
  87:Drivers/STM32F7xx_HAL_Driver/Src/stm32f7xx_hal_pwr_ex.c ****           programming manual.
  88:Drivers/STM32F7xx_HAL_Driver/Src/stm32f7xx_hal_pwr_ex.c **** 
ARM GAS  /tmp/ccLyiet9.s 			page 3


  89:Drivers/STM32F7xx_HAL_Driver/Src/stm32f7xx_hal_pwr_ex.c ****       (+) The main internal regulator can be configured to have a tradeoff between 
  90:Drivers/STM32F7xx_HAL_Driver/Src/stm32f7xx_hal_pwr_ex.c ****           performance and power consumption when the device does not operate at 
  91:Drivers/STM32F7xx_HAL_Driver/Src/stm32f7xx_hal_pwr_ex.c ****           the maximum frequency. This is done through __HAL_PWR_MAINREGULATORMODE_CONFIG() 
  92:Drivers/STM32F7xx_HAL_Driver/Src/stm32f7xx_hal_pwr_ex.c ****           macro which configure VOS bit in PWR_CR register
  93:Drivers/STM32F7xx_HAL_Driver/Src/stm32f7xx_hal_pwr_ex.c ****           
  94:Drivers/STM32F7xx_HAL_Driver/Src/stm32f7xx_hal_pwr_ex.c ****         Refer to the product datasheets for more details.
  95:Drivers/STM32F7xx_HAL_Driver/Src/stm32f7xx_hal_pwr_ex.c **** 
  96:Drivers/STM32F7xx_HAL_Driver/Src/stm32f7xx_hal_pwr_ex.c ****     *** FLASH Power Down configuration ****
  97:Drivers/STM32F7xx_HAL_Driver/Src/stm32f7xx_hal_pwr_ex.c ****     =======================================
  98:Drivers/STM32F7xx_HAL_Driver/Src/stm32f7xx_hal_pwr_ex.c ****     [..] 
  99:Drivers/STM32F7xx_HAL_Driver/Src/stm32f7xx_hal_pwr_ex.c ****       (+) By setting the FPDS bit in the PWR_CR register by using the 
 100:Drivers/STM32F7xx_HAL_Driver/Src/stm32f7xx_hal_pwr_ex.c ****           HAL_PWREx_EnableFlashPowerDown() function, the Flash memory also enters power 
 101:Drivers/STM32F7xx_HAL_Driver/Src/stm32f7xx_hal_pwr_ex.c ****           down mode when the device enters Stop mode. When the Flash memory 
 102:Drivers/STM32F7xx_HAL_Driver/Src/stm32f7xx_hal_pwr_ex.c ****           is in power down mode, an additional startup delay is incurred when 
 103:Drivers/STM32F7xx_HAL_Driver/Src/stm32f7xx_hal_pwr_ex.c ****           waking up from Stop mode.
 104:Drivers/STM32F7xx_HAL_Driver/Src/stm32f7xx_hal_pwr_ex.c **** 
 105:Drivers/STM32F7xx_HAL_Driver/Src/stm32f7xx_hal_pwr_ex.c ****     *** Over-Drive and Under-Drive configuration ****
 106:Drivers/STM32F7xx_HAL_Driver/Src/stm32f7xx_hal_pwr_ex.c ****     =================================================
 107:Drivers/STM32F7xx_HAL_Driver/Src/stm32f7xx_hal_pwr_ex.c ****     [..]         
 108:Drivers/STM32F7xx_HAL_Driver/Src/stm32f7xx_hal_pwr_ex.c ****        (+) In Run mode: the main regulator has 2 operating modes available:
 109:Drivers/STM32F7xx_HAL_Driver/Src/stm32f7xx_hal_pwr_ex.c ****         (++) Normal mode: The CPU and core logic operate at maximum frequency at a given 
 110:Drivers/STM32F7xx_HAL_Driver/Src/stm32f7xx_hal_pwr_ex.c ****              voltage scaling (scale 1, scale 2 or scale 3)
 111:Drivers/STM32F7xx_HAL_Driver/Src/stm32f7xx_hal_pwr_ex.c ****         (++) Over-drive mode: This mode allows the CPU and the core logic to operate at a 
 112:Drivers/STM32F7xx_HAL_Driver/Src/stm32f7xx_hal_pwr_ex.c ****             higher frequency than the normal mode for a given voltage scaling (scale 1,  
 113:Drivers/STM32F7xx_HAL_Driver/Src/stm32f7xx_hal_pwr_ex.c ****             scale 2 or scale 3). This mode is enabled through HAL_PWREx_EnableOverDrive() function 
 114:Drivers/STM32F7xx_HAL_Driver/Src/stm32f7xx_hal_pwr_ex.c ****             disabled by HAL_PWREx_DisableOverDrive() function, to enter or exit from Over-drive mod
 115:Drivers/STM32F7xx_HAL_Driver/Src/stm32f7xx_hal_pwr_ex.c ****             the sequence described in Reference manual.
 116:Drivers/STM32F7xx_HAL_Driver/Src/stm32f7xx_hal_pwr_ex.c ****              
 117:Drivers/STM32F7xx_HAL_Driver/Src/stm32f7xx_hal_pwr_ex.c ****        (+) In Stop mode: the main regulator or low power regulator supplies a low power 
 118:Drivers/STM32F7xx_HAL_Driver/Src/stm32f7xx_hal_pwr_ex.c ****            voltage to the 1.2V domain, thus preserving the content of registers 
 119:Drivers/STM32F7xx_HAL_Driver/Src/stm32f7xx_hal_pwr_ex.c ****            and internal SRAM. 2 operating modes are available:
 120:Drivers/STM32F7xx_HAL_Driver/Src/stm32f7xx_hal_pwr_ex.c ****          (++) Normal mode: the 1.2V domain is preserved in nominal leakage mode. This mode is only 
 121:Drivers/STM32F7xx_HAL_Driver/Src/stm32f7xx_hal_pwr_ex.c ****               available when the main regulator or the low power regulator is used in Scale 3 or 
 122:Drivers/STM32F7xx_HAL_Driver/Src/stm32f7xx_hal_pwr_ex.c ****               low voltage mode.
 123:Drivers/STM32F7xx_HAL_Driver/Src/stm32f7xx_hal_pwr_ex.c ****          (++) Under-drive mode: the 1.2V domain is preserved in reduced leakage mode. This mode is 
 124:Drivers/STM32F7xx_HAL_Driver/Src/stm32f7xx_hal_pwr_ex.c ****               available when the main regulator or the low power regulator is in low voltage mode.
 125:Drivers/STM32F7xx_HAL_Driver/Src/stm32f7xx_hal_pwr_ex.c **** 
 126:Drivers/STM32F7xx_HAL_Driver/Src/stm32f7xx_hal_pwr_ex.c **** @endverbatim
 127:Drivers/STM32F7xx_HAL_Driver/Src/stm32f7xx_hal_pwr_ex.c ****   * @{
 128:Drivers/STM32F7xx_HAL_Driver/Src/stm32f7xx_hal_pwr_ex.c ****   */
 129:Drivers/STM32F7xx_HAL_Driver/Src/stm32f7xx_hal_pwr_ex.c **** 
 130:Drivers/STM32F7xx_HAL_Driver/Src/stm32f7xx_hal_pwr_ex.c **** /**
 131:Drivers/STM32F7xx_HAL_Driver/Src/stm32f7xx_hal_pwr_ex.c ****   * @brief Enables the Backup Regulator.
 132:Drivers/STM32F7xx_HAL_Driver/Src/stm32f7xx_hal_pwr_ex.c ****   * @retval HAL status
 133:Drivers/STM32F7xx_HAL_Driver/Src/stm32f7xx_hal_pwr_ex.c ****   */
 134:Drivers/STM32F7xx_HAL_Driver/Src/stm32f7xx_hal_pwr_ex.c **** HAL_StatusTypeDef HAL_PWREx_EnableBkUpReg(void)
 135:Drivers/STM32F7xx_HAL_Driver/Src/stm32f7xx_hal_pwr_ex.c **** {
  28              		.loc 1 135 1 view -0
  29              		.cfi_startproc
  30              		@ args = 0, pretend = 0, frame = 0
  31              		@ frame_needed = 0, uses_anonymous_args = 0
  32 0000 10B5     		push	{r4, lr}
  33              	.LCFI0:
  34              		.cfi_def_cfa_offset 8
  35              		.cfi_offset 4, -8
  36              		.cfi_offset 14, -4
 136:Drivers/STM32F7xx_HAL_Driver/Src/stm32f7xx_hal_pwr_ex.c ****   uint32_t tickstart = 0;
ARM GAS  /tmp/ccLyiet9.s 			page 4


  37              		.loc 1 136 3 view .LVU1
  38              	.LVL0:
 137:Drivers/STM32F7xx_HAL_Driver/Src/stm32f7xx_hal_pwr_ex.c **** 
 138:Drivers/STM32F7xx_HAL_Driver/Src/stm32f7xx_hal_pwr_ex.c ****   /* Enable Backup regulator */
 139:Drivers/STM32F7xx_HAL_Driver/Src/stm32f7xx_hal_pwr_ex.c ****   PWR->CSR1 |= PWR_CSR1_BRE;
  39              		.loc 1 139 3 view .LVU2
  40              		.loc 1 139 13 is_stmt 0 view .LVU3
  41 0002 0D4B     		ldr	r3, .L8
  42 0004 5A68     		ldr	r2, [r3, #4]
  43 0006 42F40072 		orr	r2, r2, #512
  44 000a 5A60     		str	r2, [r3, #4]
 140:Drivers/STM32F7xx_HAL_Driver/Src/stm32f7xx_hal_pwr_ex.c ****     
 141:Drivers/STM32F7xx_HAL_Driver/Src/stm32f7xx_hal_pwr_ex.c ****   /* Workaround for the following hardware bug: */
 142:Drivers/STM32F7xx_HAL_Driver/Src/stm32f7xx_hal_pwr_ex.c ****   /* Id 19: PWR : No STANDBY wake-up when Back-up RAM enabled (ref. Errata Sheet p23) */
 143:Drivers/STM32F7xx_HAL_Driver/Src/stm32f7xx_hal_pwr_ex.c ****   PWR->CSR1 |= PWR_CSR1_EIWUP;
  45              		.loc 1 143 3 is_stmt 1 view .LVU4
  46              		.loc 1 143 13 is_stmt 0 view .LVU5
  47 000c 5A68     		ldr	r2, [r3, #4]
  48 000e 42F48072 		orr	r2, r2, #256
  49 0012 5A60     		str	r2, [r3, #4]
 144:Drivers/STM32F7xx_HAL_Driver/Src/stm32f7xx_hal_pwr_ex.c **** 
 145:Drivers/STM32F7xx_HAL_Driver/Src/stm32f7xx_hal_pwr_ex.c ****   /* Get tick */
 146:Drivers/STM32F7xx_HAL_Driver/Src/stm32f7xx_hal_pwr_ex.c ****   tickstart = HAL_GetTick();
  50              		.loc 1 146 3 is_stmt 1 view .LVU6
  51              		.loc 1 146 15 is_stmt 0 view .LVU7
  52 0014 FFF7FEFF 		bl	HAL_GetTick
  53              	.LVL1:
  54 0018 0446     		mov	r4, r0
  55              	.LVL2:
 147:Drivers/STM32F7xx_HAL_Driver/Src/stm32f7xx_hal_pwr_ex.c **** 
 148:Drivers/STM32F7xx_HAL_Driver/Src/stm32f7xx_hal_pwr_ex.c ****   /* Wait till Backup regulator ready flag is set */  
 149:Drivers/STM32F7xx_HAL_Driver/Src/stm32f7xx_hal_pwr_ex.c ****   while(__HAL_PWR_GET_FLAG(PWR_FLAG_BRR) == RESET)
  56              		.loc 1 149 3 is_stmt 1 view .LVU8
  57              	.L2:
  58              		.loc 1 149 42 view .LVU9
  59              		.loc 1 149 9 is_stmt 0 view .LVU10
  60 001a 074B     		ldr	r3, .L8
  61 001c 5B68     		ldr	r3, [r3, #4]
  62              		.loc 1 149 42 view .LVU11
  63 001e 13F0080F 		tst	r3, #8
  64 0022 07D1     		bne	.L7
 150:Drivers/STM32F7xx_HAL_Driver/Src/stm32f7xx_hal_pwr_ex.c ****   {
 151:Drivers/STM32F7xx_HAL_Driver/Src/stm32f7xx_hal_pwr_ex.c ****     if((HAL_GetTick() - tickstart ) > PWR_BKPREG_TIMEOUT_VALUE)
  65              		.loc 1 151 5 is_stmt 1 view .LVU12
  66              		.loc 1 151 9 is_stmt 0 view .LVU13
  67 0024 FFF7FEFF 		bl	HAL_GetTick
  68              	.LVL3:
  69              		.loc 1 151 23 view .LVU14
  70 0028 001B     		subs	r0, r0, r4
  71              		.loc 1 151 7 view .LVU15
  72 002a B0F57A7F 		cmp	r0, #1000
  73 002e F4D9     		bls	.L2
 152:Drivers/STM32F7xx_HAL_Driver/Src/stm32f7xx_hal_pwr_ex.c ****     {
 153:Drivers/STM32F7xx_HAL_Driver/Src/stm32f7xx_hal_pwr_ex.c ****       return HAL_TIMEOUT;
  74              		.loc 1 153 14 view .LVU16
  75 0030 0320     		movs	r0, #3
  76 0032 00E0     		b	.L3
ARM GAS  /tmp/ccLyiet9.s 			page 5


  77              	.L7:
 154:Drivers/STM32F7xx_HAL_Driver/Src/stm32f7xx_hal_pwr_ex.c ****     } 
 155:Drivers/STM32F7xx_HAL_Driver/Src/stm32f7xx_hal_pwr_ex.c ****   }
 156:Drivers/STM32F7xx_HAL_Driver/Src/stm32f7xx_hal_pwr_ex.c ****   return HAL_OK;
  78              		.loc 1 156 10 view .LVU17
  79 0034 0020     		movs	r0, #0
  80              	.L3:
 157:Drivers/STM32F7xx_HAL_Driver/Src/stm32f7xx_hal_pwr_ex.c **** }
  81              		.loc 1 157 1 view .LVU18
  82 0036 10BD     		pop	{r4, pc}
  83              	.LVL4:
  84              	.L9:
  85              		.loc 1 157 1 view .LVU19
  86              		.align	2
  87              	.L8:
  88 0038 00700040 		.word	1073770496
  89              		.cfi_endproc
  90              	.LFE141:
  92              		.section	.text.HAL_PWREx_DisableBkUpReg,"ax",%progbits
  93              		.align	1
  94              		.global	HAL_PWREx_DisableBkUpReg
  95              		.syntax unified
  96              		.thumb
  97              		.thumb_func
  99              	HAL_PWREx_DisableBkUpReg:
 100              	.LFB142:
 158:Drivers/STM32F7xx_HAL_Driver/Src/stm32f7xx_hal_pwr_ex.c **** 
 159:Drivers/STM32F7xx_HAL_Driver/Src/stm32f7xx_hal_pwr_ex.c **** /**
 160:Drivers/STM32F7xx_HAL_Driver/Src/stm32f7xx_hal_pwr_ex.c ****   * @brief Disables the Backup Regulator.
 161:Drivers/STM32F7xx_HAL_Driver/Src/stm32f7xx_hal_pwr_ex.c ****   * @retval HAL status
 162:Drivers/STM32F7xx_HAL_Driver/Src/stm32f7xx_hal_pwr_ex.c ****   */
 163:Drivers/STM32F7xx_HAL_Driver/Src/stm32f7xx_hal_pwr_ex.c **** HAL_StatusTypeDef HAL_PWREx_DisableBkUpReg(void)
 164:Drivers/STM32F7xx_HAL_Driver/Src/stm32f7xx_hal_pwr_ex.c **** {
 101              		.loc 1 164 1 is_stmt 1 view -0
 102              		.cfi_startproc
 103              		@ args = 0, pretend = 0, frame = 0
 104              		@ frame_needed = 0, uses_anonymous_args = 0
 105 0000 10B5     		push	{r4, lr}
 106              	.LCFI1:
 107              		.cfi_def_cfa_offset 8
 108              		.cfi_offset 4, -8
 109              		.cfi_offset 14, -4
 165:Drivers/STM32F7xx_HAL_Driver/Src/stm32f7xx_hal_pwr_ex.c ****   uint32_t tickstart = 0;
 110              		.loc 1 165 3 view .LVU21
 111              	.LVL5:
 166:Drivers/STM32F7xx_HAL_Driver/Src/stm32f7xx_hal_pwr_ex.c ****   
 167:Drivers/STM32F7xx_HAL_Driver/Src/stm32f7xx_hal_pwr_ex.c ****   /* Disable Backup regulator */
 168:Drivers/STM32F7xx_HAL_Driver/Src/stm32f7xx_hal_pwr_ex.c ****   PWR->CSR1 &= (uint32_t)~((uint32_t)PWR_CSR1_BRE);
 112              		.loc 1 168 3 view .LVU22
 113              		.loc 1 168 13 is_stmt 0 view .LVU23
 114 0002 0D4B     		ldr	r3, .L17
 115 0004 5A68     		ldr	r2, [r3, #4]
 116 0006 22F40072 		bic	r2, r2, #512
 117 000a 5A60     		str	r2, [r3, #4]
 169:Drivers/STM32F7xx_HAL_Driver/Src/stm32f7xx_hal_pwr_ex.c ****   
 170:Drivers/STM32F7xx_HAL_Driver/Src/stm32f7xx_hal_pwr_ex.c ****   /* Workaround for the following hardware bug: */
 171:Drivers/STM32F7xx_HAL_Driver/Src/stm32f7xx_hal_pwr_ex.c ****   /* Id 19: PWR : No STANDBY wake-up when Back-up RAM enabled (ref. Errata Sheet p23) */
ARM GAS  /tmp/ccLyiet9.s 			page 6


 172:Drivers/STM32F7xx_HAL_Driver/Src/stm32f7xx_hal_pwr_ex.c ****   PWR->CSR1 |= PWR_CSR1_EIWUP;
 118              		.loc 1 172 3 is_stmt 1 view .LVU24
 119              		.loc 1 172 13 is_stmt 0 view .LVU25
 120 000c 5A68     		ldr	r2, [r3, #4]
 121 000e 42F48072 		orr	r2, r2, #256
 122 0012 5A60     		str	r2, [r3, #4]
 173:Drivers/STM32F7xx_HAL_Driver/Src/stm32f7xx_hal_pwr_ex.c **** 
 174:Drivers/STM32F7xx_HAL_Driver/Src/stm32f7xx_hal_pwr_ex.c ****   /* Get tick */
 175:Drivers/STM32F7xx_HAL_Driver/Src/stm32f7xx_hal_pwr_ex.c ****   tickstart = HAL_GetTick();
 123              		.loc 1 175 3 is_stmt 1 view .LVU26
 124              		.loc 1 175 15 is_stmt 0 view .LVU27
 125 0014 FFF7FEFF 		bl	HAL_GetTick
 126              	.LVL6:
 127 0018 0446     		mov	r4, r0
 128              	.LVL7:
 176:Drivers/STM32F7xx_HAL_Driver/Src/stm32f7xx_hal_pwr_ex.c **** 
 177:Drivers/STM32F7xx_HAL_Driver/Src/stm32f7xx_hal_pwr_ex.c ****   /* Wait till Backup regulator ready flag is set */  
 178:Drivers/STM32F7xx_HAL_Driver/Src/stm32f7xx_hal_pwr_ex.c ****   while(__HAL_PWR_GET_FLAG(PWR_FLAG_BRR) != RESET)
 129              		.loc 1 178 3 is_stmt 1 view .LVU28
 130              	.L11:
 131              		.loc 1 178 42 view .LVU29
 132              		.loc 1 178 9 is_stmt 0 view .LVU30
 133 001a 074B     		ldr	r3, .L17
 134 001c 5B68     		ldr	r3, [r3, #4]
 135              		.loc 1 178 42 view .LVU31
 136 001e 13F0080F 		tst	r3, #8
 137 0022 07D0     		beq	.L16
 179:Drivers/STM32F7xx_HAL_Driver/Src/stm32f7xx_hal_pwr_ex.c ****   {
 180:Drivers/STM32F7xx_HAL_Driver/Src/stm32f7xx_hal_pwr_ex.c ****     if((HAL_GetTick() - tickstart ) > PWR_BKPREG_TIMEOUT_VALUE)
 138              		.loc 1 180 5 is_stmt 1 view .LVU32
 139              		.loc 1 180 9 is_stmt 0 view .LVU33
 140 0024 FFF7FEFF 		bl	HAL_GetTick
 141              	.LVL8:
 142              		.loc 1 180 23 view .LVU34
 143 0028 001B     		subs	r0, r0, r4
 144              		.loc 1 180 7 view .LVU35
 145 002a B0F57A7F 		cmp	r0, #1000
 146 002e F4D9     		bls	.L11
 181:Drivers/STM32F7xx_HAL_Driver/Src/stm32f7xx_hal_pwr_ex.c ****     {
 182:Drivers/STM32F7xx_HAL_Driver/Src/stm32f7xx_hal_pwr_ex.c ****       return HAL_TIMEOUT;
 147              		.loc 1 182 14 view .LVU36
 148 0030 0320     		movs	r0, #3
 149 0032 00E0     		b	.L12
 150              	.L16:
 183:Drivers/STM32F7xx_HAL_Driver/Src/stm32f7xx_hal_pwr_ex.c ****     } 
 184:Drivers/STM32F7xx_HAL_Driver/Src/stm32f7xx_hal_pwr_ex.c ****   }
 185:Drivers/STM32F7xx_HAL_Driver/Src/stm32f7xx_hal_pwr_ex.c ****   return HAL_OK;
 151              		.loc 1 185 10 view .LVU37
 152 0034 0020     		movs	r0, #0
 153              	.L12:
 186:Drivers/STM32F7xx_HAL_Driver/Src/stm32f7xx_hal_pwr_ex.c **** }
 154              		.loc 1 186 1 view .LVU38
 155 0036 10BD     		pop	{r4, pc}
 156              	.LVL9:
 157              	.L18:
 158              		.loc 1 186 1 view .LVU39
 159              		.align	2
ARM GAS  /tmp/ccLyiet9.s 			page 7


 160              	.L17:
 161 0038 00700040 		.word	1073770496
 162              		.cfi_endproc
 163              	.LFE142:
 165              		.section	.text.HAL_PWREx_EnableFlashPowerDown,"ax",%progbits
 166              		.align	1
 167              		.global	HAL_PWREx_EnableFlashPowerDown
 168              		.syntax unified
 169              		.thumb
 170              		.thumb_func
 172              	HAL_PWREx_EnableFlashPowerDown:
 173              	.LFB143:
 187:Drivers/STM32F7xx_HAL_Driver/Src/stm32f7xx_hal_pwr_ex.c **** 
 188:Drivers/STM32F7xx_HAL_Driver/Src/stm32f7xx_hal_pwr_ex.c **** /**
 189:Drivers/STM32F7xx_HAL_Driver/Src/stm32f7xx_hal_pwr_ex.c ****   * @brief Enables the Flash Power Down in Stop mode.
 190:Drivers/STM32F7xx_HAL_Driver/Src/stm32f7xx_hal_pwr_ex.c ****   * @retval None
 191:Drivers/STM32F7xx_HAL_Driver/Src/stm32f7xx_hal_pwr_ex.c ****   */
 192:Drivers/STM32F7xx_HAL_Driver/Src/stm32f7xx_hal_pwr_ex.c **** void HAL_PWREx_EnableFlashPowerDown(void)
 193:Drivers/STM32F7xx_HAL_Driver/Src/stm32f7xx_hal_pwr_ex.c **** {
 174              		.loc 1 193 1 is_stmt 1 view -0
 175              		.cfi_startproc
 176              		@ args = 0, pretend = 0, frame = 0
 177              		@ frame_needed = 0, uses_anonymous_args = 0
 178              		@ link register save eliminated.
 194:Drivers/STM32F7xx_HAL_Driver/Src/stm32f7xx_hal_pwr_ex.c ****   /* Enable the Flash Power Down */
 195:Drivers/STM32F7xx_HAL_Driver/Src/stm32f7xx_hal_pwr_ex.c ****   PWR->CR1 |= PWR_CR1_FPDS;
 179              		.loc 1 195 3 view .LVU41
 180              		.loc 1 195 12 is_stmt 0 view .LVU42
 181 0000 024A     		ldr	r2, .L20
 182 0002 1368     		ldr	r3, [r2]
 183 0004 43F40073 		orr	r3, r3, #512
 184 0008 1360     		str	r3, [r2]
 196:Drivers/STM32F7xx_HAL_Driver/Src/stm32f7xx_hal_pwr_ex.c **** }
 185              		.loc 1 196 1 view .LVU43
 186 000a 7047     		bx	lr
 187              	.L21:
 188              		.align	2
 189              	.L20:
 190 000c 00700040 		.word	1073770496
 191              		.cfi_endproc
 192              	.LFE143:
 194              		.section	.text.HAL_PWREx_DisableFlashPowerDown,"ax",%progbits
 195              		.align	1
 196              		.global	HAL_PWREx_DisableFlashPowerDown
 197              		.syntax unified
 198              		.thumb
 199              		.thumb_func
 201              	HAL_PWREx_DisableFlashPowerDown:
 202              	.LFB144:
 197:Drivers/STM32F7xx_HAL_Driver/Src/stm32f7xx_hal_pwr_ex.c **** 
 198:Drivers/STM32F7xx_HAL_Driver/Src/stm32f7xx_hal_pwr_ex.c **** /**
 199:Drivers/STM32F7xx_HAL_Driver/Src/stm32f7xx_hal_pwr_ex.c ****   * @brief Disables the Flash Power Down in Stop mode.
 200:Drivers/STM32F7xx_HAL_Driver/Src/stm32f7xx_hal_pwr_ex.c ****   * @retval None
 201:Drivers/STM32F7xx_HAL_Driver/Src/stm32f7xx_hal_pwr_ex.c ****   */
 202:Drivers/STM32F7xx_HAL_Driver/Src/stm32f7xx_hal_pwr_ex.c **** void HAL_PWREx_DisableFlashPowerDown(void)
 203:Drivers/STM32F7xx_HAL_Driver/Src/stm32f7xx_hal_pwr_ex.c **** {
 203              		.loc 1 203 1 is_stmt 1 view -0
ARM GAS  /tmp/ccLyiet9.s 			page 8


 204              		.cfi_startproc
 205              		@ args = 0, pretend = 0, frame = 0
 206              		@ frame_needed = 0, uses_anonymous_args = 0
 207              		@ link register save eliminated.
 204:Drivers/STM32F7xx_HAL_Driver/Src/stm32f7xx_hal_pwr_ex.c ****   /* Disable the Flash Power Down */
 205:Drivers/STM32F7xx_HAL_Driver/Src/stm32f7xx_hal_pwr_ex.c ****   PWR->CR1 &= (uint32_t)~((uint32_t)PWR_CR1_FPDS);
 208              		.loc 1 205 3 view .LVU45
 209              		.loc 1 205 12 is_stmt 0 view .LVU46
 210 0000 024A     		ldr	r2, .L23
 211 0002 1368     		ldr	r3, [r2]
 212 0004 23F40073 		bic	r3, r3, #512
 213 0008 1360     		str	r3, [r2]
 206:Drivers/STM32F7xx_HAL_Driver/Src/stm32f7xx_hal_pwr_ex.c **** }
 214              		.loc 1 206 1 view .LVU47
 215 000a 7047     		bx	lr
 216              	.L24:
 217              		.align	2
 218              	.L23:
 219 000c 00700040 		.word	1073770496
 220              		.cfi_endproc
 221              	.LFE144:
 223              		.section	.text.HAL_PWREx_EnableMainRegulatorLowVoltage,"ax",%progbits
 224              		.align	1
 225              		.global	HAL_PWREx_EnableMainRegulatorLowVoltage
 226              		.syntax unified
 227              		.thumb
 228              		.thumb_func
 230              	HAL_PWREx_EnableMainRegulatorLowVoltage:
 231              	.LFB145:
 207:Drivers/STM32F7xx_HAL_Driver/Src/stm32f7xx_hal_pwr_ex.c **** 
 208:Drivers/STM32F7xx_HAL_Driver/Src/stm32f7xx_hal_pwr_ex.c **** /**
 209:Drivers/STM32F7xx_HAL_Driver/Src/stm32f7xx_hal_pwr_ex.c ****   * @brief Enables Main Regulator low voltage mode.
 210:Drivers/STM32F7xx_HAL_Driver/Src/stm32f7xx_hal_pwr_ex.c ****   * @retval None
 211:Drivers/STM32F7xx_HAL_Driver/Src/stm32f7xx_hal_pwr_ex.c ****   */
 212:Drivers/STM32F7xx_HAL_Driver/Src/stm32f7xx_hal_pwr_ex.c **** void HAL_PWREx_EnableMainRegulatorLowVoltage(void)
 213:Drivers/STM32F7xx_HAL_Driver/Src/stm32f7xx_hal_pwr_ex.c **** {
 232              		.loc 1 213 1 is_stmt 1 view -0
 233              		.cfi_startproc
 234              		@ args = 0, pretend = 0, frame = 0
 235              		@ frame_needed = 0, uses_anonymous_args = 0
 236              		@ link register save eliminated.
 214:Drivers/STM32F7xx_HAL_Driver/Src/stm32f7xx_hal_pwr_ex.c ****   /* Enable Main regulator low voltage */
 215:Drivers/STM32F7xx_HAL_Driver/Src/stm32f7xx_hal_pwr_ex.c ****   PWR->CR1 |= PWR_CR1_MRUDS;
 237              		.loc 1 215 3 view .LVU49
 238              		.loc 1 215 12 is_stmt 0 view .LVU50
 239 0000 024A     		ldr	r2, .L26
 240 0002 1368     		ldr	r3, [r2]
 241 0004 43F40063 		orr	r3, r3, #2048
 242 0008 1360     		str	r3, [r2]
 216:Drivers/STM32F7xx_HAL_Driver/Src/stm32f7xx_hal_pwr_ex.c **** }
 243              		.loc 1 216 1 view .LVU51
 244 000a 7047     		bx	lr
 245              	.L27:
 246              		.align	2
 247              	.L26:
 248 000c 00700040 		.word	1073770496
 249              		.cfi_endproc
ARM GAS  /tmp/ccLyiet9.s 			page 9


 250              	.LFE145:
 252              		.section	.text.HAL_PWREx_DisableMainRegulatorLowVoltage,"ax",%progbits
 253              		.align	1
 254              		.global	HAL_PWREx_DisableMainRegulatorLowVoltage
 255              		.syntax unified
 256              		.thumb
 257              		.thumb_func
 259              	HAL_PWREx_DisableMainRegulatorLowVoltage:
 260              	.LFB146:
 217:Drivers/STM32F7xx_HAL_Driver/Src/stm32f7xx_hal_pwr_ex.c **** 
 218:Drivers/STM32F7xx_HAL_Driver/Src/stm32f7xx_hal_pwr_ex.c **** /**
 219:Drivers/STM32F7xx_HAL_Driver/Src/stm32f7xx_hal_pwr_ex.c ****   * @brief Disables Main Regulator low voltage mode.
 220:Drivers/STM32F7xx_HAL_Driver/Src/stm32f7xx_hal_pwr_ex.c ****   * @retval None
 221:Drivers/STM32F7xx_HAL_Driver/Src/stm32f7xx_hal_pwr_ex.c ****   */
 222:Drivers/STM32F7xx_HAL_Driver/Src/stm32f7xx_hal_pwr_ex.c **** void HAL_PWREx_DisableMainRegulatorLowVoltage(void)
 223:Drivers/STM32F7xx_HAL_Driver/Src/stm32f7xx_hal_pwr_ex.c **** {  
 261              		.loc 1 223 1 is_stmt 1 view -0
 262              		.cfi_startproc
 263              		@ args = 0, pretend = 0, frame = 0
 264              		@ frame_needed = 0, uses_anonymous_args = 0
 265              		@ link register save eliminated.
 224:Drivers/STM32F7xx_HAL_Driver/Src/stm32f7xx_hal_pwr_ex.c ****   /* Disable Main regulator low voltage */
 225:Drivers/STM32F7xx_HAL_Driver/Src/stm32f7xx_hal_pwr_ex.c ****   PWR->CR1 &= (uint32_t)~((uint32_t)PWR_CR1_MRUDS);
 266              		.loc 1 225 3 view .LVU53
 267              		.loc 1 225 12 is_stmt 0 view .LVU54
 268 0000 024A     		ldr	r2, .L29
 269 0002 1368     		ldr	r3, [r2]
 270 0004 23F40063 		bic	r3, r3, #2048
 271 0008 1360     		str	r3, [r2]
 226:Drivers/STM32F7xx_HAL_Driver/Src/stm32f7xx_hal_pwr_ex.c **** }
 272              		.loc 1 226 1 view .LVU55
 273 000a 7047     		bx	lr
 274              	.L30:
 275              		.align	2
 276              	.L29:
 277 000c 00700040 		.word	1073770496
 278              		.cfi_endproc
 279              	.LFE146:
 281              		.section	.text.HAL_PWREx_EnableLowRegulatorLowVoltage,"ax",%progbits
 282              		.align	1
 283              		.global	HAL_PWREx_EnableLowRegulatorLowVoltage
 284              		.syntax unified
 285              		.thumb
 286              		.thumb_func
 288              	HAL_PWREx_EnableLowRegulatorLowVoltage:
 289              	.LFB147:
 227:Drivers/STM32F7xx_HAL_Driver/Src/stm32f7xx_hal_pwr_ex.c **** 
 228:Drivers/STM32F7xx_HAL_Driver/Src/stm32f7xx_hal_pwr_ex.c **** /**
 229:Drivers/STM32F7xx_HAL_Driver/Src/stm32f7xx_hal_pwr_ex.c ****   * @brief Enables Low Power Regulator low voltage mode.
 230:Drivers/STM32F7xx_HAL_Driver/Src/stm32f7xx_hal_pwr_ex.c ****   * @retval None
 231:Drivers/STM32F7xx_HAL_Driver/Src/stm32f7xx_hal_pwr_ex.c ****   */
 232:Drivers/STM32F7xx_HAL_Driver/Src/stm32f7xx_hal_pwr_ex.c **** void HAL_PWREx_EnableLowRegulatorLowVoltage(void)
 233:Drivers/STM32F7xx_HAL_Driver/Src/stm32f7xx_hal_pwr_ex.c **** {
 290              		.loc 1 233 1 is_stmt 1 view -0
 291              		.cfi_startproc
 292              		@ args = 0, pretend = 0, frame = 0
 293              		@ frame_needed = 0, uses_anonymous_args = 0
ARM GAS  /tmp/ccLyiet9.s 			page 10


 294              		@ link register save eliminated.
 234:Drivers/STM32F7xx_HAL_Driver/Src/stm32f7xx_hal_pwr_ex.c ****   /* Enable low power regulator */
 235:Drivers/STM32F7xx_HAL_Driver/Src/stm32f7xx_hal_pwr_ex.c ****   PWR->CR1 |= PWR_CR1_LPUDS;
 295              		.loc 1 235 3 view .LVU57
 296              		.loc 1 235 12 is_stmt 0 view .LVU58
 297 0000 024A     		ldr	r2, .L32
 298 0002 1368     		ldr	r3, [r2]
 299 0004 43F48063 		orr	r3, r3, #1024
 300 0008 1360     		str	r3, [r2]
 236:Drivers/STM32F7xx_HAL_Driver/Src/stm32f7xx_hal_pwr_ex.c **** }
 301              		.loc 1 236 1 view .LVU59
 302 000a 7047     		bx	lr
 303              	.L33:
 304              		.align	2
 305              	.L32:
 306 000c 00700040 		.word	1073770496
 307              		.cfi_endproc
 308              	.LFE147:
 310              		.section	.text.HAL_PWREx_DisableLowRegulatorLowVoltage,"ax",%progbits
 311              		.align	1
 312              		.global	HAL_PWREx_DisableLowRegulatorLowVoltage
 313              		.syntax unified
 314              		.thumb
 315              		.thumb_func
 317              	HAL_PWREx_DisableLowRegulatorLowVoltage:
 318              	.LFB148:
 237:Drivers/STM32F7xx_HAL_Driver/Src/stm32f7xx_hal_pwr_ex.c **** 
 238:Drivers/STM32F7xx_HAL_Driver/Src/stm32f7xx_hal_pwr_ex.c **** /**
 239:Drivers/STM32F7xx_HAL_Driver/Src/stm32f7xx_hal_pwr_ex.c ****   * @brief Disables Low Power Regulator low voltage mode.
 240:Drivers/STM32F7xx_HAL_Driver/Src/stm32f7xx_hal_pwr_ex.c ****   * @retval None
 241:Drivers/STM32F7xx_HAL_Driver/Src/stm32f7xx_hal_pwr_ex.c ****   */
 242:Drivers/STM32F7xx_HAL_Driver/Src/stm32f7xx_hal_pwr_ex.c **** void HAL_PWREx_DisableLowRegulatorLowVoltage(void)
 243:Drivers/STM32F7xx_HAL_Driver/Src/stm32f7xx_hal_pwr_ex.c **** {
 319              		.loc 1 243 1 is_stmt 1 view -0
 320              		.cfi_startproc
 321              		@ args = 0, pretend = 0, frame = 0
 322              		@ frame_needed = 0, uses_anonymous_args = 0
 323              		@ link register save eliminated.
 244:Drivers/STM32F7xx_HAL_Driver/Src/stm32f7xx_hal_pwr_ex.c ****   /* Disable low power regulator */
 245:Drivers/STM32F7xx_HAL_Driver/Src/stm32f7xx_hal_pwr_ex.c ****   PWR->CR1 &= (uint32_t)~((uint32_t)PWR_CR1_LPUDS);
 324              		.loc 1 245 3 view .LVU61
 325              		.loc 1 245 12 is_stmt 0 view .LVU62
 326 0000 024A     		ldr	r2, .L35
 327 0002 1368     		ldr	r3, [r2]
 328 0004 23F48063 		bic	r3, r3, #1024
 329 0008 1360     		str	r3, [r2]
 246:Drivers/STM32F7xx_HAL_Driver/Src/stm32f7xx_hal_pwr_ex.c **** }
 330              		.loc 1 246 1 view .LVU63
 331 000a 7047     		bx	lr
 332              	.L36:
 333              		.align	2
 334              	.L35:
 335 000c 00700040 		.word	1073770496
 336              		.cfi_endproc
 337              	.LFE148:
 339              		.section	.text.HAL_PWREx_EnableOverDrive,"ax",%progbits
 340              		.align	1
ARM GAS  /tmp/ccLyiet9.s 			page 11


 341              		.global	HAL_PWREx_EnableOverDrive
 342              		.syntax unified
 343              		.thumb
 344              		.thumb_func
 346              	HAL_PWREx_EnableOverDrive:
 347              	.LFB149:
 247:Drivers/STM32F7xx_HAL_Driver/Src/stm32f7xx_hal_pwr_ex.c **** 
 248:Drivers/STM32F7xx_HAL_Driver/Src/stm32f7xx_hal_pwr_ex.c **** /**
 249:Drivers/STM32F7xx_HAL_Driver/Src/stm32f7xx_hal_pwr_ex.c ****   * @brief  Activates the Over-Drive mode.
 250:Drivers/STM32F7xx_HAL_Driver/Src/stm32f7xx_hal_pwr_ex.c ****   * @note   This mode allows the CPU and the core logic to operate at a higher frequency
 251:Drivers/STM32F7xx_HAL_Driver/Src/stm32f7xx_hal_pwr_ex.c ****   *         than the normal mode for a given voltage scaling (scale 1, scale 2 or scale 3).   
 252:Drivers/STM32F7xx_HAL_Driver/Src/stm32f7xx_hal_pwr_ex.c ****   * @note   It is recommended to enter or exit Over-drive mode when the application is not running 
 253:Drivers/STM32F7xx_HAL_Driver/Src/stm32f7xx_hal_pwr_ex.c ****   *         critical tasks and when the system clock source is either HSI or HSE. 
 254:Drivers/STM32F7xx_HAL_Driver/Src/stm32f7xx_hal_pwr_ex.c ****   *         During the Over-drive switch activation, no peripheral clocks should be enabled.   
 255:Drivers/STM32F7xx_HAL_Driver/Src/stm32f7xx_hal_pwr_ex.c ****   *         The peripheral clocks must be enabled once the Over-drive mode is activated.   
 256:Drivers/STM32F7xx_HAL_Driver/Src/stm32f7xx_hal_pwr_ex.c ****   * @retval HAL status
 257:Drivers/STM32F7xx_HAL_Driver/Src/stm32f7xx_hal_pwr_ex.c ****   */
 258:Drivers/STM32F7xx_HAL_Driver/Src/stm32f7xx_hal_pwr_ex.c **** HAL_StatusTypeDef HAL_PWREx_EnableOverDrive(void)
 259:Drivers/STM32F7xx_HAL_Driver/Src/stm32f7xx_hal_pwr_ex.c **** {
 348              		.loc 1 259 1 is_stmt 1 view -0
 349              		.cfi_startproc
 350              		@ args = 0, pretend = 0, frame = 8
 351              		@ frame_needed = 0, uses_anonymous_args = 0
 352 0000 10B5     		push	{r4, lr}
 353              	.LCFI2:
 354              		.cfi_def_cfa_offset 8
 355              		.cfi_offset 4, -8
 356              		.cfi_offset 14, -4
 357 0002 82B0     		sub	sp, sp, #8
 358              	.LCFI3:
 359              		.cfi_def_cfa_offset 16
 260:Drivers/STM32F7xx_HAL_Driver/Src/stm32f7xx_hal_pwr_ex.c ****   uint32_t tickstart = 0;
 360              		.loc 1 260 3 view .LVU65
 361              	.LVL10:
 261:Drivers/STM32F7xx_HAL_Driver/Src/stm32f7xx_hal_pwr_ex.c **** 
 262:Drivers/STM32F7xx_HAL_Driver/Src/stm32f7xx_hal_pwr_ex.c ****   __HAL_RCC_PWR_CLK_ENABLE();
 362              		.loc 1 262 3 view .LVU66
 363              	.LBB2:
 364              		.loc 1 262 3 view .LVU67
 365              		.loc 1 262 3 view .LVU68
 366 0004 1B4B     		ldr	r3, .L48
 367 0006 1A6C     		ldr	r2, [r3, #64]
 368 0008 42F08052 		orr	r2, r2, #268435456
 369 000c 1A64     		str	r2, [r3, #64]
 370              		.loc 1 262 3 view .LVU69
 371 000e 1B6C     		ldr	r3, [r3, #64]
 372 0010 03F08053 		and	r3, r3, #268435456
 373 0014 0193     		str	r3, [sp, #4]
 374              		.loc 1 262 3 view .LVU70
 375 0016 019B     		ldr	r3, [sp, #4]
 376              	.LBE2:
 377              		.loc 1 262 3 view .LVU71
 263:Drivers/STM32F7xx_HAL_Driver/Src/stm32f7xx_hal_pwr_ex.c ****   
 264:Drivers/STM32F7xx_HAL_Driver/Src/stm32f7xx_hal_pwr_ex.c ****   /* Enable the Over-drive to extend the clock frequency to 216 MHz */
 265:Drivers/STM32F7xx_HAL_Driver/Src/stm32f7xx_hal_pwr_ex.c ****   __HAL_PWR_OVERDRIVE_ENABLE();
 378              		.loc 1 265 3 view .LVU72
 379 0018 174A     		ldr	r2, .L48+4
ARM GAS  /tmp/ccLyiet9.s 			page 12


 380 001a 1368     		ldr	r3, [r2]
 381 001c 43F48033 		orr	r3, r3, #65536
 382 0020 1360     		str	r3, [r2]
 266:Drivers/STM32F7xx_HAL_Driver/Src/stm32f7xx_hal_pwr_ex.c **** 
 267:Drivers/STM32F7xx_HAL_Driver/Src/stm32f7xx_hal_pwr_ex.c ****   /* Get tick */
 268:Drivers/STM32F7xx_HAL_Driver/Src/stm32f7xx_hal_pwr_ex.c ****   tickstart = HAL_GetTick();
 383              		.loc 1 268 3 view .LVU73
 384              		.loc 1 268 15 is_stmt 0 view .LVU74
 385 0022 FFF7FEFF 		bl	HAL_GetTick
 386              	.LVL11:
 387 0026 0446     		mov	r4, r0
 388              	.LVL12:
 269:Drivers/STM32F7xx_HAL_Driver/Src/stm32f7xx_hal_pwr_ex.c **** 
 270:Drivers/STM32F7xx_HAL_Driver/Src/stm32f7xx_hal_pwr_ex.c ****   while(!__HAL_PWR_GET_FLAG(PWR_FLAG_ODRDY))
 389              		.loc 1 270 3 is_stmt 1 view .LVU75
 390              	.L38:
 391              		.loc 1 270 9 view .LVU76
 392              		.loc 1 270 10 is_stmt 0 view .LVU77
 393 0028 134B     		ldr	r3, .L48+4
 394 002a 5B68     		ldr	r3, [r3, #4]
 395              		.loc 1 270 9 view .LVU78
 396 002c 13F4803F 		tst	r3, #65536
 397 0030 08D1     		bne	.L46
 271:Drivers/STM32F7xx_HAL_Driver/Src/stm32f7xx_hal_pwr_ex.c ****   {
 272:Drivers/STM32F7xx_HAL_Driver/Src/stm32f7xx_hal_pwr_ex.c ****     if((HAL_GetTick() - tickstart ) > PWR_OVERDRIVE_TIMEOUT_VALUE)
 398              		.loc 1 272 5 is_stmt 1 view .LVU79
 399              		.loc 1 272 9 is_stmt 0 view .LVU80
 400 0032 FFF7FEFF 		bl	HAL_GetTick
 401              	.LVL13:
 402              		.loc 1 272 23 view .LVU81
 403 0036 001B     		subs	r0, r0, r4
 404              		.loc 1 272 7 view .LVU82
 405 0038 B0F57A7F 		cmp	r0, #1000
 406 003c F4D9     		bls	.L38
 273:Drivers/STM32F7xx_HAL_Driver/Src/stm32f7xx_hal_pwr_ex.c ****     {
 274:Drivers/STM32F7xx_HAL_Driver/Src/stm32f7xx_hal_pwr_ex.c ****       return HAL_TIMEOUT;
 407              		.loc 1 274 14 view .LVU83
 408 003e 0320     		movs	r0, #3
 409              	.L39:
 275:Drivers/STM32F7xx_HAL_Driver/Src/stm32f7xx_hal_pwr_ex.c ****     }
 276:Drivers/STM32F7xx_HAL_Driver/Src/stm32f7xx_hal_pwr_ex.c ****   }
 277:Drivers/STM32F7xx_HAL_Driver/Src/stm32f7xx_hal_pwr_ex.c ****   
 278:Drivers/STM32F7xx_HAL_Driver/Src/stm32f7xx_hal_pwr_ex.c ****   /* Enable the Over-drive switch */
 279:Drivers/STM32F7xx_HAL_Driver/Src/stm32f7xx_hal_pwr_ex.c ****   __HAL_PWR_OVERDRIVESWITCHING_ENABLE();
 280:Drivers/STM32F7xx_HAL_Driver/Src/stm32f7xx_hal_pwr_ex.c **** 
 281:Drivers/STM32F7xx_HAL_Driver/Src/stm32f7xx_hal_pwr_ex.c ****   /* Get tick */
 282:Drivers/STM32F7xx_HAL_Driver/Src/stm32f7xx_hal_pwr_ex.c ****   tickstart = HAL_GetTick();
 283:Drivers/STM32F7xx_HAL_Driver/Src/stm32f7xx_hal_pwr_ex.c **** 
 284:Drivers/STM32F7xx_HAL_Driver/Src/stm32f7xx_hal_pwr_ex.c ****   while(!__HAL_PWR_GET_FLAG(PWR_FLAG_ODSWRDY))
 285:Drivers/STM32F7xx_HAL_Driver/Src/stm32f7xx_hal_pwr_ex.c ****   {
 286:Drivers/STM32F7xx_HAL_Driver/Src/stm32f7xx_hal_pwr_ex.c ****     if((HAL_GetTick() - tickstart ) > PWR_OVERDRIVE_TIMEOUT_VALUE)
 287:Drivers/STM32F7xx_HAL_Driver/Src/stm32f7xx_hal_pwr_ex.c ****     {
 288:Drivers/STM32F7xx_HAL_Driver/Src/stm32f7xx_hal_pwr_ex.c ****       return HAL_TIMEOUT;
 289:Drivers/STM32F7xx_HAL_Driver/Src/stm32f7xx_hal_pwr_ex.c ****     }
 290:Drivers/STM32F7xx_HAL_Driver/Src/stm32f7xx_hal_pwr_ex.c ****   } 
 291:Drivers/STM32F7xx_HAL_Driver/Src/stm32f7xx_hal_pwr_ex.c ****   return HAL_OK;
 292:Drivers/STM32F7xx_HAL_Driver/Src/stm32f7xx_hal_pwr_ex.c **** }
ARM GAS  /tmp/ccLyiet9.s 			page 13


 410              		.loc 1 292 1 view .LVU84
 411 0040 02B0     		add	sp, sp, #8
 412              	.LCFI4:
 413              		.cfi_remember_state
 414              		.cfi_def_cfa_offset 8
 415              		@ sp needed
 416 0042 10BD     		pop	{r4, pc}
 417              	.LVL14:
 418              	.L46:
 419              	.LCFI5:
 420              		.cfi_restore_state
 279:Drivers/STM32F7xx_HAL_Driver/Src/stm32f7xx_hal_pwr_ex.c **** 
 421              		.loc 1 279 3 is_stmt 1 view .LVU85
 422 0044 0C4A     		ldr	r2, .L48+4
 423 0046 1368     		ldr	r3, [r2]
 424 0048 43F40033 		orr	r3, r3, #131072
 425 004c 1360     		str	r3, [r2]
 282:Drivers/STM32F7xx_HAL_Driver/Src/stm32f7xx_hal_pwr_ex.c **** 
 426              		.loc 1 282 3 view .LVU86
 282:Drivers/STM32F7xx_HAL_Driver/Src/stm32f7xx_hal_pwr_ex.c **** 
 427              		.loc 1 282 15 is_stmt 0 view .LVU87
 428 004e FFF7FEFF 		bl	HAL_GetTick
 429              	.LVL15:
 430 0052 0446     		mov	r4, r0
 431              	.LVL16:
 284:Drivers/STM32F7xx_HAL_Driver/Src/stm32f7xx_hal_pwr_ex.c ****   {
 432              		.loc 1 284 3 is_stmt 1 view .LVU88
 433              	.L41:
 284:Drivers/STM32F7xx_HAL_Driver/Src/stm32f7xx_hal_pwr_ex.c ****   {
 434              		.loc 1 284 9 view .LVU89
 284:Drivers/STM32F7xx_HAL_Driver/Src/stm32f7xx_hal_pwr_ex.c ****   {
 435              		.loc 1 284 10 is_stmt 0 view .LVU90
 436 0054 084B     		ldr	r3, .L48+4
 437 0056 5B68     		ldr	r3, [r3, #4]
 284:Drivers/STM32F7xx_HAL_Driver/Src/stm32f7xx_hal_pwr_ex.c ****   {
 438              		.loc 1 284 9 view .LVU91
 439 0058 13F4003F 		tst	r3, #131072
 440 005c 07D1     		bne	.L47
 286:Drivers/STM32F7xx_HAL_Driver/Src/stm32f7xx_hal_pwr_ex.c ****     {
 441              		.loc 1 286 5 is_stmt 1 view .LVU92
 286:Drivers/STM32F7xx_HAL_Driver/Src/stm32f7xx_hal_pwr_ex.c ****     {
 442              		.loc 1 286 9 is_stmt 0 view .LVU93
 443 005e FFF7FEFF 		bl	HAL_GetTick
 444              	.LVL17:
 286:Drivers/STM32F7xx_HAL_Driver/Src/stm32f7xx_hal_pwr_ex.c ****     {
 445              		.loc 1 286 23 view .LVU94
 446 0062 001B     		subs	r0, r0, r4
 286:Drivers/STM32F7xx_HAL_Driver/Src/stm32f7xx_hal_pwr_ex.c ****     {
 447              		.loc 1 286 7 view .LVU95
 448 0064 B0F57A7F 		cmp	r0, #1000
 449 0068 F4D9     		bls	.L41
 288:Drivers/STM32F7xx_HAL_Driver/Src/stm32f7xx_hal_pwr_ex.c ****     }
 450              		.loc 1 288 14 view .LVU96
 451 006a 0320     		movs	r0, #3
 452 006c E8E7     		b	.L39
 453              	.L47:
 291:Drivers/STM32F7xx_HAL_Driver/Src/stm32f7xx_hal_pwr_ex.c **** }
ARM GAS  /tmp/ccLyiet9.s 			page 14


 454              		.loc 1 291 10 view .LVU97
 455 006e 0020     		movs	r0, #0
 456 0070 E6E7     		b	.L39
 457              	.L49:
 458 0072 00BF     		.align	2
 459              	.L48:
 460 0074 00380240 		.word	1073887232
 461 0078 00700040 		.word	1073770496
 462              		.cfi_endproc
 463              	.LFE149:
 465              		.section	.text.HAL_PWREx_DisableOverDrive,"ax",%progbits
 466              		.align	1
 467              		.global	HAL_PWREx_DisableOverDrive
 468              		.syntax unified
 469              		.thumb
 470              		.thumb_func
 472              	HAL_PWREx_DisableOverDrive:
 473              	.LFB150:
 293:Drivers/STM32F7xx_HAL_Driver/Src/stm32f7xx_hal_pwr_ex.c **** 
 294:Drivers/STM32F7xx_HAL_Driver/Src/stm32f7xx_hal_pwr_ex.c **** /**
 295:Drivers/STM32F7xx_HAL_Driver/Src/stm32f7xx_hal_pwr_ex.c ****   * @brief  Deactivates the Over-Drive mode.
 296:Drivers/STM32F7xx_HAL_Driver/Src/stm32f7xx_hal_pwr_ex.c ****   * @note   This mode allows the CPU and the core logic to operate at a higher frequency
 297:Drivers/STM32F7xx_HAL_Driver/Src/stm32f7xx_hal_pwr_ex.c ****   *         than the normal mode for a given voltage scaling (scale 1, scale 2 or scale 3).    
 298:Drivers/STM32F7xx_HAL_Driver/Src/stm32f7xx_hal_pwr_ex.c ****   * @note   It is recommended to enter or exit Over-drive mode when the application is not running 
 299:Drivers/STM32F7xx_HAL_Driver/Src/stm32f7xx_hal_pwr_ex.c ****   *         critical tasks and when the system clock source is either HSI or HSE. 
 300:Drivers/STM32F7xx_HAL_Driver/Src/stm32f7xx_hal_pwr_ex.c ****   *         During the Over-drive switch activation, no peripheral clocks should be enabled.   
 301:Drivers/STM32F7xx_HAL_Driver/Src/stm32f7xx_hal_pwr_ex.c ****   *         The peripheral clocks must be enabled once the Over-drive mode is activated.
 302:Drivers/STM32F7xx_HAL_Driver/Src/stm32f7xx_hal_pwr_ex.c ****   * @retval HAL status
 303:Drivers/STM32F7xx_HAL_Driver/Src/stm32f7xx_hal_pwr_ex.c ****   */
 304:Drivers/STM32F7xx_HAL_Driver/Src/stm32f7xx_hal_pwr_ex.c **** HAL_StatusTypeDef HAL_PWREx_DisableOverDrive(void)
 305:Drivers/STM32F7xx_HAL_Driver/Src/stm32f7xx_hal_pwr_ex.c **** {
 474              		.loc 1 305 1 is_stmt 1 view -0
 475              		.cfi_startproc
 476              		@ args = 0, pretend = 0, frame = 8
 477              		@ frame_needed = 0, uses_anonymous_args = 0
 478 0000 10B5     		push	{r4, lr}
 479              	.LCFI6:
 480              		.cfi_def_cfa_offset 8
 481              		.cfi_offset 4, -8
 482              		.cfi_offset 14, -4
 483 0002 82B0     		sub	sp, sp, #8
 484              	.LCFI7:
 485              		.cfi_def_cfa_offset 16
 306:Drivers/STM32F7xx_HAL_Driver/Src/stm32f7xx_hal_pwr_ex.c ****   uint32_t tickstart = 0;
 486              		.loc 1 306 3 view .LVU99
 487              	.LVL18:
 307:Drivers/STM32F7xx_HAL_Driver/Src/stm32f7xx_hal_pwr_ex.c ****   
 308:Drivers/STM32F7xx_HAL_Driver/Src/stm32f7xx_hal_pwr_ex.c ****   __HAL_RCC_PWR_CLK_ENABLE();
 488              		.loc 1 308 3 view .LVU100
 489              	.LBB3:
 490              		.loc 1 308 3 view .LVU101
 491              		.loc 1 308 3 view .LVU102
 492 0004 1B4B     		ldr	r3, .L61
 493 0006 1A6C     		ldr	r2, [r3, #64]
 494 0008 42F08052 		orr	r2, r2, #268435456
 495 000c 1A64     		str	r2, [r3, #64]
 496              		.loc 1 308 3 view .LVU103
ARM GAS  /tmp/ccLyiet9.s 			page 15


 497 000e 1B6C     		ldr	r3, [r3, #64]
 498 0010 03F08053 		and	r3, r3, #268435456
 499 0014 0193     		str	r3, [sp, #4]
 500              		.loc 1 308 3 view .LVU104
 501 0016 019B     		ldr	r3, [sp, #4]
 502              	.LBE3:
 503              		.loc 1 308 3 view .LVU105
 309:Drivers/STM32F7xx_HAL_Driver/Src/stm32f7xx_hal_pwr_ex.c ****     
 310:Drivers/STM32F7xx_HAL_Driver/Src/stm32f7xx_hal_pwr_ex.c ****   /* Disable the Over-drive switch */
 311:Drivers/STM32F7xx_HAL_Driver/Src/stm32f7xx_hal_pwr_ex.c ****   __HAL_PWR_OVERDRIVESWITCHING_DISABLE();
 504              		.loc 1 311 3 view .LVU106
 505 0018 174A     		ldr	r2, .L61+4
 506 001a 1368     		ldr	r3, [r2]
 507 001c 23F40033 		bic	r3, r3, #131072
 508 0020 1360     		str	r3, [r2]
 312:Drivers/STM32F7xx_HAL_Driver/Src/stm32f7xx_hal_pwr_ex.c ****   
 313:Drivers/STM32F7xx_HAL_Driver/Src/stm32f7xx_hal_pwr_ex.c ****   /* Get tick */
 314:Drivers/STM32F7xx_HAL_Driver/Src/stm32f7xx_hal_pwr_ex.c ****   tickstart = HAL_GetTick();
 509              		.loc 1 314 3 view .LVU107
 510              		.loc 1 314 15 is_stmt 0 view .LVU108
 511 0022 FFF7FEFF 		bl	HAL_GetTick
 512              	.LVL19:
 513 0026 0446     		mov	r4, r0
 514              	.LVL20:
 315:Drivers/STM32F7xx_HAL_Driver/Src/stm32f7xx_hal_pwr_ex.c ****  
 316:Drivers/STM32F7xx_HAL_Driver/Src/stm32f7xx_hal_pwr_ex.c ****   while(__HAL_PWR_GET_FLAG(PWR_FLAG_ODSWRDY))
 515              		.loc 1 316 3 is_stmt 1 view .LVU109
 516              	.L51:
 517              		.loc 1 316 9 view .LVU110
 518 0028 134B     		ldr	r3, .L61+4
 519 002a 5B68     		ldr	r3, [r3, #4]
 520 002c 13F4003F 		tst	r3, #131072
 521 0030 08D0     		beq	.L59
 317:Drivers/STM32F7xx_HAL_Driver/Src/stm32f7xx_hal_pwr_ex.c ****   {
 318:Drivers/STM32F7xx_HAL_Driver/Src/stm32f7xx_hal_pwr_ex.c ****     if((HAL_GetTick() - tickstart ) > PWR_OVERDRIVE_TIMEOUT_VALUE)
 522              		.loc 1 318 5 view .LVU111
 523              		.loc 1 318 9 is_stmt 0 view .LVU112
 524 0032 FFF7FEFF 		bl	HAL_GetTick
 525              	.LVL21:
 526              		.loc 1 318 23 view .LVU113
 527 0036 001B     		subs	r0, r0, r4
 528              		.loc 1 318 7 view .LVU114
 529 0038 B0F57A7F 		cmp	r0, #1000
 530 003c F4D9     		bls	.L51
 319:Drivers/STM32F7xx_HAL_Driver/Src/stm32f7xx_hal_pwr_ex.c ****     {
 320:Drivers/STM32F7xx_HAL_Driver/Src/stm32f7xx_hal_pwr_ex.c ****       return HAL_TIMEOUT;
 531              		.loc 1 320 14 view .LVU115
 532 003e 0320     		movs	r0, #3
 533              	.L52:
 321:Drivers/STM32F7xx_HAL_Driver/Src/stm32f7xx_hal_pwr_ex.c ****     }
 322:Drivers/STM32F7xx_HAL_Driver/Src/stm32f7xx_hal_pwr_ex.c ****   } 
 323:Drivers/STM32F7xx_HAL_Driver/Src/stm32f7xx_hal_pwr_ex.c ****   
 324:Drivers/STM32F7xx_HAL_Driver/Src/stm32f7xx_hal_pwr_ex.c ****   /* Disable the Over-drive */
 325:Drivers/STM32F7xx_HAL_Driver/Src/stm32f7xx_hal_pwr_ex.c ****   __HAL_PWR_OVERDRIVE_DISABLE();
 326:Drivers/STM32F7xx_HAL_Driver/Src/stm32f7xx_hal_pwr_ex.c **** 
 327:Drivers/STM32F7xx_HAL_Driver/Src/stm32f7xx_hal_pwr_ex.c ****   /* Get tick */
 328:Drivers/STM32F7xx_HAL_Driver/Src/stm32f7xx_hal_pwr_ex.c ****   tickstart = HAL_GetTick();
ARM GAS  /tmp/ccLyiet9.s 			page 16


 329:Drivers/STM32F7xx_HAL_Driver/Src/stm32f7xx_hal_pwr_ex.c **** 
 330:Drivers/STM32F7xx_HAL_Driver/Src/stm32f7xx_hal_pwr_ex.c ****   while(__HAL_PWR_GET_FLAG(PWR_FLAG_ODRDY))
 331:Drivers/STM32F7xx_HAL_Driver/Src/stm32f7xx_hal_pwr_ex.c ****   {
 332:Drivers/STM32F7xx_HAL_Driver/Src/stm32f7xx_hal_pwr_ex.c ****     if((HAL_GetTick() - tickstart ) > PWR_OVERDRIVE_TIMEOUT_VALUE)
 333:Drivers/STM32F7xx_HAL_Driver/Src/stm32f7xx_hal_pwr_ex.c ****     {
 334:Drivers/STM32F7xx_HAL_Driver/Src/stm32f7xx_hal_pwr_ex.c ****       return HAL_TIMEOUT;
 335:Drivers/STM32F7xx_HAL_Driver/Src/stm32f7xx_hal_pwr_ex.c ****     }
 336:Drivers/STM32F7xx_HAL_Driver/Src/stm32f7xx_hal_pwr_ex.c ****   }
 337:Drivers/STM32F7xx_HAL_Driver/Src/stm32f7xx_hal_pwr_ex.c ****   
 338:Drivers/STM32F7xx_HAL_Driver/Src/stm32f7xx_hal_pwr_ex.c ****   return HAL_OK;
 339:Drivers/STM32F7xx_HAL_Driver/Src/stm32f7xx_hal_pwr_ex.c **** }
 534              		.loc 1 339 1 view .LVU116
 535 0040 02B0     		add	sp, sp, #8
 536              	.LCFI8:
 537              		.cfi_remember_state
 538              		.cfi_def_cfa_offset 8
 539              		@ sp needed
 540 0042 10BD     		pop	{r4, pc}
 541              	.LVL22:
 542              	.L59:
 543              	.LCFI9:
 544              		.cfi_restore_state
 325:Drivers/STM32F7xx_HAL_Driver/Src/stm32f7xx_hal_pwr_ex.c **** 
 545              		.loc 1 325 3 is_stmt 1 view .LVU117
 546 0044 0C4A     		ldr	r2, .L61+4
 547 0046 1368     		ldr	r3, [r2]
 548 0048 23F48033 		bic	r3, r3, #65536
 549 004c 1360     		str	r3, [r2]
 328:Drivers/STM32F7xx_HAL_Driver/Src/stm32f7xx_hal_pwr_ex.c **** 
 550              		.loc 1 328 3 view .LVU118
 328:Drivers/STM32F7xx_HAL_Driver/Src/stm32f7xx_hal_pwr_ex.c **** 
 551              		.loc 1 328 15 is_stmt 0 view .LVU119
 552 004e FFF7FEFF 		bl	HAL_GetTick
 553              	.LVL23:
 554 0052 0446     		mov	r4, r0
 555              	.LVL24:
 330:Drivers/STM32F7xx_HAL_Driver/Src/stm32f7xx_hal_pwr_ex.c ****   {
 556              		.loc 1 330 3 is_stmt 1 view .LVU120
 557              	.L54:
 330:Drivers/STM32F7xx_HAL_Driver/Src/stm32f7xx_hal_pwr_ex.c ****   {
 558              		.loc 1 330 9 view .LVU121
 559 0054 084B     		ldr	r3, .L61+4
 560 0056 5B68     		ldr	r3, [r3, #4]
 561 0058 13F4803F 		tst	r3, #65536
 562 005c 07D0     		beq	.L60
 332:Drivers/STM32F7xx_HAL_Driver/Src/stm32f7xx_hal_pwr_ex.c ****     {
 563              		.loc 1 332 5 view .LVU122
 332:Drivers/STM32F7xx_HAL_Driver/Src/stm32f7xx_hal_pwr_ex.c ****     {
 564              		.loc 1 332 9 is_stmt 0 view .LVU123
 565 005e FFF7FEFF 		bl	HAL_GetTick
 566              	.LVL25:
 332:Drivers/STM32F7xx_HAL_Driver/Src/stm32f7xx_hal_pwr_ex.c ****     {
 567              		.loc 1 332 23 view .LVU124
 568 0062 001B     		subs	r0, r0, r4
 332:Drivers/STM32F7xx_HAL_Driver/Src/stm32f7xx_hal_pwr_ex.c ****     {
 569              		.loc 1 332 7 view .LVU125
 570 0064 B0F57A7F 		cmp	r0, #1000
ARM GAS  /tmp/ccLyiet9.s 			page 17


 571 0068 F4D9     		bls	.L54
 334:Drivers/STM32F7xx_HAL_Driver/Src/stm32f7xx_hal_pwr_ex.c ****     }
 572              		.loc 1 334 14 view .LVU126
 573 006a 0320     		movs	r0, #3
 574 006c E8E7     		b	.L52
 575              	.L60:
 338:Drivers/STM32F7xx_HAL_Driver/Src/stm32f7xx_hal_pwr_ex.c **** }
 576              		.loc 1 338 10 view .LVU127
 577 006e 0020     		movs	r0, #0
 578 0070 E6E7     		b	.L52
 579              	.L62:
 580 0072 00BF     		.align	2
 581              	.L61:
 582 0074 00380240 		.word	1073887232
 583 0078 00700040 		.word	1073770496
 584              		.cfi_endproc
 585              	.LFE150:
 587              		.section	.text.HAL_PWREx_EnterUnderDriveSTOPMode,"ax",%progbits
 588              		.align	1
 589              		.global	HAL_PWREx_EnterUnderDriveSTOPMode
 590              		.syntax unified
 591              		.thumb
 592              		.thumb_func
 594              	HAL_PWREx_EnterUnderDriveSTOPMode:
 595              	.LVL26:
 596              	.LFB151:
 340:Drivers/STM32F7xx_HAL_Driver/Src/stm32f7xx_hal_pwr_ex.c **** 
 341:Drivers/STM32F7xx_HAL_Driver/Src/stm32f7xx_hal_pwr_ex.c **** /**
 342:Drivers/STM32F7xx_HAL_Driver/Src/stm32f7xx_hal_pwr_ex.c ****   * @brief  Enters in Under-Drive STOP mode.
 343:Drivers/STM32F7xx_HAL_Driver/Src/stm32f7xx_hal_pwr_ex.c ****   * 
 344:Drivers/STM32F7xx_HAL_Driver/Src/stm32f7xx_hal_pwr_ex.c ****   * @note    This mode can be selected only when the Under-Drive is already active 
 345:Drivers/STM32F7xx_HAL_Driver/Src/stm32f7xx_hal_pwr_ex.c ****   *   
 346:Drivers/STM32F7xx_HAL_Driver/Src/stm32f7xx_hal_pwr_ex.c ****   * @note    This mode is enabled only with STOP low power mode.
 347:Drivers/STM32F7xx_HAL_Driver/Src/stm32f7xx_hal_pwr_ex.c ****   *          In this mode, the 1.2V domain is preserved in reduced leakage mode. This 
 348:Drivers/STM32F7xx_HAL_Driver/Src/stm32f7xx_hal_pwr_ex.c ****   *          mode is only available when the main regulator or the low power regulator 
 349:Drivers/STM32F7xx_HAL_Driver/Src/stm32f7xx_hal_pwr_ex.c ****   *          is in low voltage mode
 350:Drivers/STM32F7xx_HAL_Driver/Src/stm32f7xx_hal_pwr_ex.c ****   *        
 351:Drivers/STM32F7xx_HAL_Driver/Src/stm32f7xx_hal_pwr_ex.c ****   * @note   If the Under-drive mode was enabled, it is automatically disabled after 
 352:Drivers/STM32F7xx_HAL_Driver/Src/stm32f7xx_hal_pwr_ex.c ****   *         exiting Stop mode. 
 353:Drivers/STM32F7xx_HAL_Driver/Src/stm32f7xx_hal_pwr_ex.c ****   *         When the voltage regulator operates in Under-drive mode, an additional  
 354:Drivers/STM32F7xx_HAL_Driver/Src/stm32f7xx_hal_pwr_ex.c ****   *         startup delay is induced when waking up from Stop mode.
 355:Drivers/STM32F7xx_HAL_Driver/Src/stm32f7xx_hal_pwr_ex.c ****   *                    
 356:Drivers/STM32F7xx_HAL_Driver/Src/stm32f7xx_hal_pwr_ex.c ****   * @note   In Stop mode, all I/O pins keep the same state as in Run mode.
 357:Drivers/STM32F7xx_HAL_Driver/Src/stm32f7xx_hal_pwr_ex.c ****   *   
 358:Drivers/STM32F7xx_HAL_Driver/Src/stm32f7xx_hal_pwr_ex.c ****   * @note   When exiting Stop mode by issuing an interrupt or a wakeup event, 
 359:Drivers/STM32F7xx_HAL_Driver/Src/stm32f7xx_hal_pwr_ex.c ****   *         the HSI RC oscillator is selected as system clock.
 360:Drivers/STM32F7xx_HAL_Driver/Src/stm32f7xx_hal_pwr_ex.c ****   *           
 361:Drivers/STM32F7xx_HAL_Driver/Src/stm32f7xx_hal_pwr_ex.c ****   * @note   When the voltage regulator operates in low power mode, an additional 
 362:Drivers/STM32F7xx_HAL_Driver/Src/stm32f7xx_hal_pwr_ex.c ****   *         startup delay is incurred when waking up from Stop mode. 
 363:Drivers/STM32F7xx_HAL_Driver/Src/stm32f7xx_hal_pwr_ex.c ****   *         By keeping the internal regulator ON during Stop mode, the consumption 
 364:Drivers/STM32F7xx_HAL_Driver/Src/stm32f7xx_hal_pwr_ex.c ****   *         is higher although the startup time is reduced.
 365:Drivers/STM32F7xx_HAL_Driver/Src/stm32f7xx_hal_pwr_ex.c ****   *     
 366:Drivers/STM32F7xx_HAL_Driver/Src/stm32f7xx_hal_pwr_ex.c ****   * @param  Regulator specifies the regulator state in STOP mode.
 367:Drivers/STM32F7xx_HAL_Driver/Src/stm32f7xx_hal_pwr_ex.c ****   *          This parameter can be one of the following values:
 368:Drivers/STM32F7xx_HAL_Driver/Src/stm32f7xx_hal_pwr_ex.c ****   *            @arg PWR_MAINREGULATOR_UNDERDRIVE_ON:  Main Regulator in under-drive mode 
 369:Drivers/STM32F7xx_HAL_Driver/Src/stm32f7xx_hal_pwr_ex.c ****   *                 and Flash memory in power-down when the device is in Stop under-drive mode
 370:Drivers/STM32F7xx_HAL_Driver/Src/stm32f7xx_hal_pwr_ex.c ****   *            @arg PWR_LOWPOWERREGULATOR_UNDERDRIVE_ON:  Low Power Regulator in under-drive mode 
ARM GAS  /tmp/ccLyiet9.s 			page 18


 371:Drivers/STM32F7xx_HAL_Driver/Src/stm32f7xx_hal_pwr_ex.c ****   *                and Flash memory in power-down when the device is in Stop under-drive mode
 372:Drivers/STM32F7xx_HAL_Driver/Src/stm32f7xx_hal_pwr_ex.c ****   * @param  STOPEntry specifies if STOP mode in entered with WFI or WFE instruction.
 373:Drivers/STM32F7xx_HAL_Driver/Src/stm32f7xx_hal_pwr_ex.c ****   *          This parameter can be one of the following values:
 374:Drivers/STM32F7xx_HAL_Driver/Src/stm32f7xx_hal_pwr_ex.c ****   *            @arg PWR_SLEEPENTRY_WFI: enter STOP mode with WFI instruction
 375:Drivers/STM32F7xx_HAL_Driver/Src/stm32f7xx_hal_pwr_ex.c ****   *            @arg PWR_SLEEPENTRY_WFE: enter STOP mode with WFE instruction
 376:Drivers/STM32F7xx_HAL_Driver/Src/stm32f7xx_hal_pwr_ex.c ****   * @retval None
 377:Drivers/STM32F7xx_HAL_Driver/Src/stm32f7xx_hal_pwr_ex.c ****   */
 378:Drivers/STM32F7xx_HAL_Driver/Src/stm32f7xx_hal_pwr_ex.c **** HAL_StatusTypeDef HAL_PWREx_EnterUnderDriveSTOPMode(uint32_t Regulator, uint8_t STOPEntry)
 379:Drivers/STM32F7xx_HAL_Driver/Src/stm32f7xx_hal_pwr_ex.c **** {
 597              		.loc 1 379 1 is_stmt 1 view -0
 598              		.cfi_startproc
 599              		@ args = 0, pretend = 0, frame = 8
 600              		@ frame_needed = 0, uses_anonymous_args = 0
 601              		.loc 1 379 1 is_stmt 0 view .LVU129
 602 0000 70B5     		push	{r4, r5, r6, lr}
 603              	.LCFI10:
 604              		.cfi_def_cfa_offset 16
 605              		.cfi_offset 4, -16
 606              		.cfi_offset 5, -12
 607              		.cfi_offset 6, -8
 608              		.cfi_offset 14, -4
 609 0002 82B0     		sub	sp, sp, #8
 610              	.LCFI11:
 611              		.cfi_def_cfa_offset 24
 612 0004 0646     		mov	r6, r0
 613 0006 0D46     		mov	r5, r1
 380:Drivers/STM32F7xx_HAL_Driver/Src/stm32f7xx_hal_pwr_ex.c ****   uint32_t tempreg = 0;
 614              		.loc 1 380 3 is_stmt 1 view .LVU130
 615              	.LVL27:
 381:Drivers/STM32F7xx_HAL_Driver/Src/stm32f7xx_hal_pwr_ex.c ****   uint32_t tickstart = 0;
 616              		.loc 1 381 3 view .LVU131
 382:Drivers/STM32F7xx_HAL_Driver/Src/stm32f7xx_hal_pwr_ex.c ****   
 383:Drivers/STM32F7xx_HAL_Driver/Src/stm32f7xx_hal_pwr_ex.c ****   /* Check the parameters */
 384:Drivers/STM32F7xx_HAL_Driver/Src/stm32f7xx_hal_pwr_ex.c ****   assert_param(IS_PWR_REGULATOR_UNDERDRIVE(Regulator));
 617              		.loc 1 384 3 view .LVU132
 385:Drivers/STM32F7xx_HAL_Driver/Src/stm32f7xx_hal_pwr_ex.c ****   assert_param(IS_PWR_STOP_ENTRY(STOPEntry));
 618              		.loc 1 385 3 view .LVU133
 386:Drivers/STM32F7xx_HAL_Driver/Src/stm32f7xx_hal_pwr_ex.c ****   
 387:Drivers/STM32F7xx_HAL_Driver/Src/stm32f7xx_hal_pwr_ex.c ****   /* Enable Power ctrl clock */
 388:Drivers/STM32F7xx_HAL_Driver/Src/stm32f7xx_hal_pwr_ex.c ****   __HAL_RCC_PWR_CLK_ENABLE();
 619              		.loc 1 388 3 view .LVU134
 620              	.LBB4:
 621              		.loc 1 388 3 view .LVU135
 622              		.loc 1 388 3 view .LVU136
 623 0008 1E4B     		ldr	r3, .L73
 624 000a 1A6C     		ldr	r2, [r3, #64]
 625 000c 42F08052 		orr	r2, r2, #268435456
 626 0010 1A64     		str	r2, [r3, #64]
 627              		.loc 1 388 3 view .LVU137
 628 0012 1B6C     		ldr	r3, [r3, #64]
 629 0014 03F08053 		and	r3, r3, #268435456
 630 0018 0193     		str	r3, [sp, #4]
 631              		.loc 1 388 3 view .LVU138
 632 001a 019B     		ldr	r3, [sp, #4]
 633              	.LBE4:
 634              		.loc 1 388 3 view .LVU139
 389:Drivers/STM32F7xx_HAL_Driver/Src/stm32f7xx_hal_pwr_ex.c ****   /* Enable the Under-drive Mode ---------------------------------------------*/
ARM GAS  /tmp/ccLyiet9.s 			page 19


 390:Drivers/STM32F7xx_HAL_Driver/Src/stm32f7xx_hal_pwr_ex.c ****   /* Clear Under-drive flag */
 391:Drivers/STM32F7xx_HAL_Driver/Src/stm32f7xx_hal_pwr_ex.c ****   __HAL_PWR_CLEAR_ODRUDR_FLAG();
 635              		.loc 1 391 3 view .LVU140
 636 001c 1A4B     		ldr	r3, .L73+4
 637 001e 5968     		ldr	r1, [r3, #4]
 638              	.LVL28:
 639              		.loc 1 391 3 is_stmt 0 view .LVU141
 640 0020 1A4A     		ldr	r2, .L73+8
 641 0022 0A43     		orrs	r2, r2, r1
 642 0024 5A60     		str	r2, [r3, #4]
 392:Drivers/STM32F7xx_HAL_Driver/Src/stm32f7xx_hal_pwr_ex.c ****   
 393:Drivers/STM32F7xx_HAL_Driver/Src/stm32f7xx_hal_pwr_ex.c ****   /* Enable the Under-drive */ 
 394:Drivers/STM32F7xx_HAL_Driver/Src/stm32f7xx_hal_pwr_ex.c ****   __HAL_PWR_UNDERDRIVE_ENABLE();
 643              		.loc 1 394 3 is_stmt 1 view .LVU142
 644 0026 1A68     		ldr	r2, [r3]
 645 0028 42F44022 		orr	r2, r2, #786432
 646 002c 1A60     		str	r2, [r3]
 395:Drivers/STM32F7xx_HAL_Driver/Src/stm32f7xx_hal_pwr_ex.c **** 
 396:Drivers/STM32F7xx_HAL_Driver/Src/stm32f7xx_hal_pwr_ex.c ****   /* Get tick */
 397:Drivers/STM32F7xx_HAL_Driver/Src/stm32f7xx_hal_pwr_ex.c ****   tickstart = HAL_GetTick();
 647              		.loc 1 397 3 view .LVU143
 648              		.loc 1 397 15 is_stmt 0 view .LVU144
 649 002e FFF7FEFF 		bl	HAL_GetTick
 650              	.LVL29:
 651              		.loc 1 397 15 view .LVU145
 652 0032 0446     		mov	r4, r0
 653              	.LVL30:
 398:Drivers/STM32F7xx_HAL_Driver/Src/stm32f7xx_hal_pwr_ex.c **** 
 399:Drivers/STM32F7xx_HAL_Driver/Src/stm32f7xx_hal_pwr_ex.c ****   /* Wait for UnderDrive mode is ready */
 400:Drivers/STM32F7xx_HAL_Driver/Src/stm32f7xx_hal_pwr_ex.c ****   while(__HAL_PWR_GET_FLAG(PWR_FLAG_UDRDY))
 654              		.loc 1 400 3 is_stmt 1 view .LVU146
 655              	.L64:
 656              		.loc 1 400 9 view .LVU147
 657 0034 144B     		ldr	r3, .L73+4
 658 0036 5B68     		ldr	r3, [r3, #4]
 659 0038 03F44023 		and	r3, r3, #786432
 660 003c B3F5402F 		cmp	r3, #786432
 661 0040 07D1     		bne	.L71
 401:Drivers/STM32F7xx_HAL_Driver/Src/stm32f7xx_hal_pwr_ex.c ****   {
 402:Drivers/STM32F7xx_HAL_Driver/Src/stm32f7xx_hal_pwr_ex.c ****     if((HAL_GetTick() - tickstart ) > PWR_UDERDRIVE_TIMEOUT_VALUE)
 662              		.loc 1 402 5 view .LVU148
 663              		.loc 1 402 9 is_stmt 0 view .LVU149
 664 0042 FFF7FEFF 		bl	HAL_GetTick
 665              	.LVL31:
 666              		.loc 1 402 23 view .LVU150
 667 0046 001B     		subs	r0, r0, r4
 668              		.loc 1 402 7 view .LVU151
 669 0048 B0F57A7F 		cmp	r0, #1000
 670 004c F2D9     		bls	.L64
 403:Drivers/STM32F7xx_HAL_Driver/Src/stm32f7xx_hal_pwr_ex.c ****     {
 404:Drivers/STM32F7xx_HAL_Driver/Src/stm32f7xx_hal_pwr_ex.c ****       return HAL_TIMEOUT;
 671              		.loc 1 404 14 view .LVU152
 672 004e 0320     		movs	r0, #3
 673 0050 13E0     		b	.L65
 674              	.L71:
 405:Drivers/STM32F7xx_HAL_Driver/Src/stm32f7xx_hal_pwr_ex.c ****     }
 406:Drivers/STM32F7xx_HAL_Driver/Src/stm32f7xx_hal_pwr_ex.c ****   }
ARM GAS  /tmp/ccLyiet9.s 			page 20


 407:Drivers/STM32F7xx_HAL_Driver/Src/stm32f7xx_hal_pwr_ex.c ****   
 408:Drivers/STM32F7xx_HAL_Driver/Src/stm32f7xx_hal_pwr_ex.c ****   /* Select the regulator state in STOP mode ---------------------------------*/
 409:Drivers/STM32F7xx_HAL_Driver/Src/stm32f7xx_hal_pwr_ex.c ****   tempreg = PWR->CR1;
 675              		.loc 1 409 3 is_stmt 1 view .LVU153
 676              		.loc 1 409 11 is_stmt 0 view .LVU154
 677 0052 0D4A     		ldr	r2, .L73+4
 678 0054 1168     		ldr	r1, [r2]
 679              	.LVL32:
 410:Drivers/STM32F7xx_HAL_Driver/Src/stm32f7xx_hal_pwr_ex.c ****   /* Clear PDDS, LPDS, MRLUDS and LPLUDS bits */
 411:Drivers/STM32F7xx_HAL_Driver/Src/stm32f7xx_hal_pwr_ex.c ****   tempreg &= (uint32_t)~(PWR_CR1_PDDS | PWR_CR1_LPDS | PWR_CR1_LPUDS | PWR_CR1_MRUDS);
 680              		.loc 1 411 3 is_stmt 1 view .LVU155
 681              		.loc 1 411 11 is_stmt 0 view .LVU156
 682 0056 0E4B     		ldr	r3, .L73+12
 683 0058 0B40     		ands	r3, r3, r1
 684              	.LVL33:
 412:Drivers/STM32F7xx_HAL_Driver/Src/stm32f7xx_hal_pwr_ex.c ****   
 413:Drivers/STM32F7xx_HAL_Driver/Src/stm32f7xx_hal_pwr_ex.c ****   /* Set LPDS, MRLUDS and LPLUDS bits according to PWR_Regulator value */
 414:Drivers/STM32F7xx_HAL_Driver/Src/stm32f7xx_hal_pwr_ex.c ****   tempreg |= Regulator;
 685              		.loc 1 414 3 is_stmt 1 view .LVU157
 686              		.loc 1 414 11 is_stmt 0 view .LVU158
 687 005a 3343     		orrs	r3, r3, r6
 688              	.LVL34:
 415:Drivers/STM32F7xx_HAL_Driver/Src/stm32f7xx_hal_pwr_ex.c ****   
 416:Drivers/STM32F7xx_HAL_Driver/Src/stm32f7xx_hal_pwr_ex.c ****   /* Store the new value */
 417:Drivers/STM32F7xx_HAL_Driver/Src/stm32f7xx_hal_pwr_ex.c ****   PWR->CR1 = tempreg;
 689              		.loc 1 417 3 is_stmt 1 view .LVU159
 690              		.loc 1 417 12 is_stmt 0 view .LVU160
 691 005c 1360     		str	r3, [r2]
 418:Drivers/STM32F7xx_HAL_Driver/Src/stm32f7xx_hal_pwr_ex.c ****   
 419:Drivers/STM32F7xx_HAL_Driver/Src/stm32f7xx_hal_pwr_ex.c ****   /* Set SLEEPDEEP bit of Cortex System Control Register */
 420:Drivers/STM32F7xx_HAL_Driver/Src/stm32f7xx_hal_pwr_ex.c ****   SCB->SCR |= SCB_SCR_SLEEPDEEP_Msk;
 692              		.loc 1 420 3 is_stmt 1 view .LVU161
 693              		.loc 1 420 12 is_stmt 0 view .LVU162
 694 005e 0D4A     		ldr	r2, .L73+16
 695 0060 1369     		ldr	r3, [r2, #16]
 696              	.LVL35:
 697              		.loc 1 420 12 view .LVU163
 698 0062 43F00403 		orr	r3, r3, #4
 699 0066 1361     		str	r3, [r2, #16]
 700              	.LVL36:
 421:Drivers/STM32F7xx_HAL_Driver/Src/stm32f7xx_hal_pwr_ex.c ****   
 422:Drivers/STM32F7xx_HAL_Driver/Src/stm32f7xx_hal_pwr_ex.c ****   /* Select STOP mode entry --------------------------------------------------*/
 423:Drivers/STM32F7xx_HAL_Driver/Src/stm32f7xx_hal_pwr_ex.c ****   if(STOPEntry == PWR_SLEEPENTRY_WFI)
 701              		.loc 1 423 3 is_stmt 1 view .LVU164
 702              		.loc 1 423 5 is_stmt 0 view .LVU165
 703 0068 012D     		cmp	r5, #1
 704 006a 08D0     		beq	.L72
 424:Drivers/STM32F7xx_HAL_Driver/Src/stm32f7xx_hal_pwr_ex.c ****   {   
 425:Drivers/STM32F7xx_HAL_Driver/Src/stm32f7xx_hal_pwr_ex.c ****     /* Request Wait For Interrupt */
 426:Drivers/STM32F7xx_HAL_Driver/Src/stm32f7xx_hal_pwr_ex.c ****     __WFI();
 427:Drivers/STM32F7xx_HAL_Driver/Src/stm32f7xx_hal_pwr_ex.c ****   }
 428:Drivers/STM32F7xx_HAL_Driver/Src/stm32f7xx_hal_pwr_ex.c ****   else
 429:Drivers/STM32F7xx_HAL_Driver/Src/stm32f7xx_hal_pwr_ex.c ****   {
 430:Drivers/STM32F7xx_HAL_Driver/Src/stm32f7xx_hal_pwr_ex.c ****     /* Request Wait For Event */
 431:Drivers/STM32F7xx_HAL_Driver/Src/stm32f7xx_hal_pwr_ex.c ****     __WFE();
 705              		.loc 1 431 5 is_stmt 1 view .LVU166
 706              		.syntax unified
ARM GAS  /tmp/ccLyiet9.s 			page 21


 707              	@ 431 "Drivers/STM32F7xx_HAL_Driver/Src/stm32f7xx_hal_pwr_ex.c" 1
 708 006c 20BF     		wfe
 709              	@ 0 "" 2
 710              		.thumb
 711              		.syntax unified
 712              	.L68:
 432:Drivers/STM32F7xx_HAL_Driver/Src/stm32f7xx_hal_pwr_ex.c ****   }
 433:Drivers/STM32F7xx_HAL_Driver/Src/stm32f7xx_hal_pwr_ex.c ****   /* Reset SLEEPDEEP bit of Cortex System Control Register */
 434:Drivers/STM32F7xx_HAL_Driver/Src/stm32f7xx_hal_pwr_ex.c ****   SCB->SCR &= (uint32_t)~((uint32_t)SCB_SCR_SLEEPDEEP_Msk);
 713              		.loc 1 434 3 view .LVU167
 714              		.loc 1 434 12 is_stmt 0 view .LVU168
 715 006e 094A     		ldr	r2, .L73+16
 716 0070 1369     		ldr	r3, [r2, #16]
 717 0072 23F00403 		bic	r3, r3, #4
 718 0076 1361     		str	r3, [r2, #16]
 435:Drivers/STM32F7xx_HAL_Driver/Src/stm32f7xx_hal_pwr_ex.c **** 
 436:Drivers/STM32F7xx_HAL_Driver/Src/stm32f7xx_hal_pwr_ex.c ****   return HAL_OK;  
 719              		.loc 1 436 3 is_stmt 1 view .LVU169
 720              		.loc 1 436 10 is_stmt 0 view .LVU170
 721 0078 0020     		movs	r0, #0
 722              	.LVL37:
 723              	.L65:
 437:Drivers/STM32F7xx_HAL_Driver/Src/stm32f7xx_hal_pwr_ex.c **** }
 724              		.loc 1 437 1 view .LVU171
 725 007a 02B0     		add	sp, sp, #8
 726              	.LCFI12:
 727              		.cfi_remember_state
 728              		.cfi_def_cfa_offset 16
 729              		@ sp needed
 730 007c 70BD     		pop	{r4, r5, r6, pc}
 731              	.LVL38:
 732              	.L72:
 733              	.LCFI13:
 734              		.cfi_restore_state
 426:Drivers/STM32F7xx_HAL_Driver/Src/stm32f7xx_hal_pwr_ex.c ****   }
 735              		.loc 1 426 5 is_stmt 1 view .LVU172
 736              		.syntax unified
 737              	@ 426 "Drivers/STM32F7xx_HAL_Driver/Src/stm32f7xx_hal_pwr_ex.c" 1
 738 007e 30BF     		wfi
 739              	@ 0 "" 2
 740              		.thumb
 741              		.syntax unified
 742 0080 F5E7     		b	.L68
 743              	.L74:
 744 0082 00BF     		.align	2
 745              	.L73:
 746 0084 00380240 		.word	1073887232
 747 0088 00700040 		.word	1073770496
 748 008c 00010C00 		.word	786688
 749 0090 FCF3FFFF 		.word	-3076
 750 0094 00ED00E0 		.word	-536810240
 751              		.cfi_endproc
 752              	.LFE151:
 754              		.section	.text.HAL_PWREx_GetVoltageRange,"ax",%progbits
 755              		.align	1
 756              		.global	HAL_PWREx_GetVoltageRange
 757              		.syntax unified
ARM GAS  /tmp/ccLyiet9.s 			page 22


 758              		.thumb
 759              		.thumb_func
 761              	HAL_PWREx_GetVoltageRange:
 762              	.LFB152:
 438:Drivers/STM32F7xx_HAL_Driver/Src/stm32f7xx_hal_pwr_ex.c **** 
 439:Drivers/STM32F7xx_HAL_Driver/Src/stm32f7xx_hal_pwr_ex.c **** /**
 440:Drivers/STM32F7xx_HAL_Driver/Src/stm32f7xx_hal_pwr_ex.c ****   * @brief Returns Voltage Scaling Range.
 441:Drivers/STM32F7xx_HAL_Driver/Src/stm32f7xx_hal_pwr_ex.c ****   * @retval VOS bit field (PWR_REGULATOR_VOLTAGE_SCALE1, PWR_REGULATOR_VOLTAGE_SCALE2 or 
 442:Drivers/STM32F7xx_HAL_Driver/Src/stm32f7xx_hal_pwr_ex.c ****   *            PWR_REGULATOR_VOLTAGE_SCALE3)PWR_REGULATOR_VOLTAGE_SCALE1
 443:Drivers/STM32F7xx_HAL_Driver/Src/stm32f7xx_hal_pwr_ex.c ****   */  
 444:Drivers/STM32F7xx_HAL_Driver/Src/stm32f7xx_hal_pwr_ex.c **** uint32_t HAL_PWREx_GetVoltageRange(void)
 445:Drivers/STM32F7xx_HAL_Driver/Src/stm32f7xx_hal_pwr_ex.c **** {
 763              		.loc 1 445 1 view -0
 764              		.cfi_startproc
 765              		@ args = 0, pretend = 0, frame = 0
 766              		@ frame_needed = 0, uses_anonymous_args = 0
 767              		@ link register save eliminated.
 446:Drivers/STM32F7xx_HAL_Driver/Src/stm32f7xx_hal_pwr_ex.c ****   return  (PWR->CR1 & PWR_CR1_VOS);
 768              		.loc 1 446 3 view .LVU174
 769              		.loc 1 446 15 is_stmt 0 view .LVU175
 770 0000 024B     		ldr	r3, .L76
 771 0002 1868     		ldr	r0, [r3]
 447:Drivers/STM32F7xx_HAL_Driver/Src/stm32f7xx_hal_pwr_ex.c **** }
 772              		.loc 1 447 1 view .LVU176
 773 0004 00F44040 		and	r0, r0, #49152
 774 0008 7047     		bx	lr
 775              	.L77:
 776 000a 00BF     		.align	2
 777              	.L76:
 778 000c 00700040 		.word	1073770496
 779              		.cfi_endproc
 780              	.LFE152:
 782              		.section	.text.HAL_PWREx_ControlVoltageScaling,"ax",%progbits
 783              		.align	1
 784              		.global	HAL_PWREx_ControlVoltageScaling
 785              		.syntax unified
 786              		.thumb
 787              		.thumb_func
 789              	HAL_PWREx_ControlVoltageScaling:
 790              	.LVL39:
 791              	.LFB153:
 448:Drivers/STM32F7xx_HAL_Driver/Src/stm32f7xx_hal_pwr_ex.c **** 
 449:Drivers/STM32F7xx_HAL_Driver/Src/stm32f7xx_hal_pwr_ex.c **** /**
 450:Drivers/STM32F7xx_HAL_Driver/Src/stm32f7xx_hal_pwr_ex.c ****   * @brief Configures the main internal regulator output voltage.
 451:Drivers/STM32F7xx_HAL_Driver/Src/stm32f7xx_hal_pwr_ex.c ****   * @param  VoltageScaling specifies the regulator output voltage to achieve
 452:Drivers/STM32F7xx_HAL_Driver/Src/stm32f7xx_hal_pwr_ex.c ****   *         a tradeoff between performance and power consumption.
 453:Drivers/STM32F7xx_HAL_Driver/Src/stm32f7xx_hal_pwr_ex.c ****   *          This parameter can be one of the following values:
 454:Drivers/STM32F7xx_HAL_Driver/Src/stm32f7xx_hal_pwr_ex.c ****   *            @arg PWR_REGULATOR_VOLTAGE_SCALE1: Regulator voltage output range 1 mode,
 455:Drivers/STM32F7xx_HAL_Driver/Src/stm32f7xx_hal_pwr_ex.c ****   *                                                typical output voltage at 1.4 V,  
 456:Drivers/STM32F7xx_HAL_Driver/Src/stm32f7xx_hal_pwr_ex.c ****   *                                                system frequency up to 216 MHz.
 457:Drivers/STM32F7xx_HAL_Driver/Src/stm32f7xx_hal_pwr_ex.c ****   *            @arg PWR_REGULATOR_VOLTAGE_SCALE2: Regulator voltage output range 2 mode,
 458:Drivers/STM32F7xx_HAL_Driver/Src/stm32f7xx_hal_pwr_ex.c ****   *                                                typical output voltage at 1.2 V,                
 459:Drivers/STM32F7xx_HAL_Driver/Src/stm32f7xx_hal_pwr_ex.c ****   *                                                system frequency up to 180 MHz.
 460:Drivers/STM32F7xx_HAL_Driver/Src/stm32f7xx_hal_pwr_ex.c ****   *            @arg PWR_REGULATOR_VOLTAGE_SCALE3: Regulator voltage output range 2 mode,
 461:Drivers/STM32F7xx_HAL_Driver/Src/stm32f7xx_hal_pwr_ex.c ****   *                                                typical output voltage at 1.00 V,               
 462:Drivers/STM32F7xx_HAL_Driver/Src/stm32f7xx_hal_pwr_ex.c ****   *                                                system frequency up to 151 MHz.
 463:Drivers/STM32F7xx_HAL_Driver/Src/stm32f7xx_hal_pwr_ex.c ****   * @note To update the system clock frequency(SYSCLK):
ARM GAS  /tmp/ccLyiet9.s 			page 23


 464:Drivers/STM32F7xx_HAL_Driver/Src/stm32f7xx_hal_pwr_ex.c ****   *        - Set the HSI or HSE as system clock frequency using the HAL_RCC_ClockConfig().
 465:Drivers/STM32F7xx_HAL_Driver/Src/stm32f7xx_hal_pwr_ex.c ****   *        - Call the HAL_RCC_OscConfig() to configure the PLL.
 466:Drivers/STM32F7xx_HAL_Driver/Src/stm32f7xx_hal_pwr_ex.c ****   *        - Call HAL_PWREx_ConfigVoltageScaling() API to adjust the voltage scale.
 467:Drivers/STM32F7xx_HAL_Driver/Src/stm32f7xx_hal_pwr_ex.c ****   *        - Set the new system clock frequency using the HAL_RCC_ClockConfig().
 468:Drivers/STM32F7xx_HAL_Driver/Src/stm32f7xx_hal_pwr_ex.c ****   * @note The scale can be modified only when the HSI or HSE clock source is selected 
 469:Drivers/STM32F7xx_HAL_Driver/Src/stm32f7xx_hal_pwr_ex.c ****   *        as system clock source, otherwise the API returns HAL_ERROR.  
 470:Drivers/STM32F7xx_HAL_Driver/Src/stm32f7xx_hal_pwr_ex.c ****   * @note When the PLL is OFF, the voltage scale 3 is automatically selected and the VOS bits
 471:Drivers/STM32F7xx_HAL_Driver/Src/stm32f7xx_hal_pwr_ex.c ****   *       value in the PWR_CR1 register are not taken in account.
 472:Drivers/STM32F7xx_HAL_Driver/Src/stm32f7xx_hal_pwr_ex.c ****   * @note This API forces the PLL state ON to allow the possibility to configure the voltage scale 
 473:Drivers/STM32F7xx_HAL_Driver/Src/stm32f7xx_hal_pwr_ex.c ****   * @note The new voltage scale is active only when the PLL is ON.  
 474:Drivers/STM32F7xx_HAL_Driver/Src/stm32f7xx_hal_pwr_ex.c ****   * @retval HAL Status
 475:Drivers/STM32F7xx_HAL_Driver/Src/stm32f7xx_hal_pwr_ex.c ****   */
 476:Drivers/STM32F7xx_HAL_Driver/Src/stm32f7xx_hal_pwr_ex.c **** HAL_StatusTypeDef HAL_PWREx_ControlVoltageScaling(uint32_t VoltageScaling)
 477:Drivers/STM32F7xx_HAL_Driver/Src/stm32f7xx_hal_pwr_ex.c **** {
 792              		.loc 1 477 1 is_stmt 1 view -0
 793              		.cfi_startproc
 794              		@ args = 0, pretend = 0, frame = 8
 795              		@ frame_needed = 0, uses_anonymous_args = 0
 796              		.loc 1 477 1 is_stmt 0 view .LVU178
 797 0000 30B5     		push	{r4, r5, lr}
 798              	.LCFI14:
 799              		.cfi_def_cfa_offset 12
 800              		.cfi_offset 4, -12
 801              		.cfi_offset 5, -8
 802              		.cfi_offset 14, -4
 803 0002 83B0     		sub	sp, sp, #12
 804              	.LCFI15:
 805              		.cfi_def_cfa_offset 24
 478:Drivers/STM32F7xx_HAL_Driver/Src/stm32f7xx_hal_pwr_ex.c ****   uint32_t tickstart = 0;
 806              		.loc 1 478 3 is_stmt 1 view .LVU179
 807              	.LVL40:
 479:Drivers/STM32F7xx_HAL_Driver/Src/stm32f7xx_hal_pwr_ex.c **** 
 480:Drivers/STM32F7xx_HAL_Driver/Src/stm32f7xx_hal_pwr_ex.c ****   assert_param(IS_PWR_REGULATOR_VOLTAGE(VoltageScaling));
 808              		.loc 1 480 3 view .LVU180
 481:Drivers/STM32F7xx_HAL_Driver/Src/stm32f7xx_hal_pwr_ex.c **** 
 482:Drivers/STM32F7xx_HAL_Driver/Src/stm32f7xx_hal_pwr_ex.c ****   /* Enable Power ctrl clock */
 483:Drivers/STM32F7xx_HAL_Driver/Src/stm32f7xx_hal_pwr_ex.c ****   __HAL_RCC_PWR_CLK_ENABLE();
 809              		.loc 1 483 3 view .LVU181
 810              	.LBB5:
 811              		.loc 1 483 3 view .LVU182
 812              		.loc 1 483 3 view .LVU183
 813 0004 2C4B     		ldr	r3, .L94
 814 0006 1A6C     		ldr	r2, [r3, #64]
 815 0008 42F08052 		orr	r2, r2, #268435456
 816 000c 1A64     		str	r2, [r3, #64]
 817              		.loc 1 483 3 view .LVU184
 818 000e 1A6C     		ldr	r2, [r3, #64]
 819 0010 02F08052 		and	r2, r2, #268435456
 820 0014 0092     		str	r2, [sp]
 821              		.loc 1 483 3 view .LVU185
 822 0016 009A     		ldr	r2, [sp]
 823              	.LBE5:
 824              		.loc 1 483 3 view .LVU186
 484:Drivers/STM32F7xx_HAL_Driver/Src/stm32f7xx_hal_pwr_ex.c **** 
 485:Drivers/STM32F7xx_HAL_Driver/Src/stm32f7xx_hal_pwr_ex.c ****   /* Check if the PLL is used as system clock or not */
 486:Drivers/STM32F7xx_HAL_Driver/Src/stm32f7xx_hal_pwr_ex.c ****   if(__HAL_RCC_GET_SYSCLK_SOURCE() != RCC_CFGR_SWS_PLL)
 825              		.loc 1 486 3 view .LVU187
ARM GAS  /tmp/ccLyiet9.s 			page 24


 826              		.loc 1 486 6 is_stmt 0 view .LVU188
 827 0018 9B68     		ldr	r3, [r3, #8]
 828 001a 03F00C03 		and	r3, r3, #12
 829              		.loc 1 486 5 view .LVU189
 830 001e 082B     		cmp	r3, #8
 831 0020 46D0     		beq	.L86
 832 0022 0546     		mov	r5, r0
 487:Drivers/STM32F7xx_HAL_Driver/Src/stm32f7xx_hal_pwr_ex.c ****   {
 488:Drivers/STM32F7xx_HAL_Driver/Src/stm32f7xx_hal_pwr_ex.c ****     /* Disable the main PLL */
 489:Drivers/STM32F7xx_HAL_Driver/Src/stm32f7xx_hal_pwr_ex.c ****     __HAL_RCC_PLL_DISABLE();
 833              		.loc 1 489 5 is_stmt 1 view .LVU190
 834 0024 244A     		ldr	r2, .L94
 835 0026 1368     		ldr	r3, [r2]
 836 0028 23F08073 		bic	r3, r3, #16777216
 837 002c 1360     		str	r3, [r2]
 490:Drivers/STM32F7xx_HAL_Driver/Src/stm32f7xx_hal_pwr_ex.c ****     
 491:Drivers/STM32F7xx_HAL_Driver/Src/stm32f7xx_hal_pwr_ex.c ****     /* Get Start Tick */
 492:Drivers/STM32F7xx_HAL_Driver/Src/stm32f7xx_hal_pwr_ex.c ****     tickstart = HAL_GetTick();    
 838              		.loc 1 492 5 view .LVU191
 839              		.loc 1 492 17 is_stmt 0 view .LVU192
 840 002e FFF7FEFF 		bl	HAL_GetTick
 841              	.LVL41:
 842              		.loc 1 492 17 view .LVU193
 843 0032 0446     		mov	r4, r0
 844              	.LVL42:
 493:Drivers/STM32F7xx_HAL_Driver/Src/stm32f7xx_hal_pwr_ex.c ****     /* Wait till PLL is disabled */  
 494:Drivers/STM32F7xx_HAL_Driver/Src/stm32f7xx_hal_pwr_ex.c ****     while(__HAL_RCC_GET_FLAG(RCC_FLAG_PLLRDY) != RESET)
 845              		.loc 1 494 5 is_stmt 1 view .LVU194
 846              	.L80:
 847              		.loc 1 494 47 view .LVU195
 848              		.loc 1 494 11 is_stmt 0 view .LVU196
 849 0034 204B     		ldr	r3, .L94
 850 0036 1B68     		ldr	r3, [r3]
 851              		.loc 1 494 47 view .LVU197
 852 0038 13F0007F 		tst	r3, #33554432
 853 003c 06D0     		beq	.L91
 495:Drivers/STM32F7xx_HAL_Driver/Src/stm32f7xx_hal_pwr_ex.c ****     {
 496:Drivers/STM32F7xx_HAL_Driver/Src/stm32f7xx_hal_pwr_ex.c ****       if((HAL_GetTick() - tickstart ) > PLL_TIMEOUT_VALUE)
 854              		.loc 1 496 7 is_stmt 1 view .LVU198
 855              		.loc 1 496 11 is_stmt 0 view .LVU199
 856 003e FFF7FEFF 		bl	HAL_GetTick
 857              	.LVL43:
 858              		.loc 1 496 25 view .LVU200
 859 0042 031B     		subs	r3, r0, r4
 860              		.loc 1 496 9 view .LVU201
 861 0044 022B     		cmp	r3, #2
 862 0046 F5D9     		bls	.L80
 497:Drivers/STM32F7xx_HAL_Driver/Src/stm32f7xx_hal_pwr_ex.c ****       {
 498:Drivers/STM32F7xx_HAL_Driver/Src/stm32f7xx_hal_pwr_ex.c ****         return HAL_TIMEOUT;
 863              		.loc 1 498 16 view .LVU202
 864 0048 0320     		movs	r0, #3
 865 004a 32E0     		b	.L79
 866              	.L91:
 499:Drivers/STM32F7xx_HAL_Driver/Src/stm32f7xx_hal_pwr_ex.c ****       }
 500:Drivers/STM32F7xx_HAL_Driver/Src/stm32f7xx_hal_pwr_ex.c ****     }
 501:Drivers/STM32F7xx_HAL_Driver/Src/stm32f7xx_hal_pwr_ex.c ****     
 502:Drivers/STM32F7xx_HAL_Driver/Src/stm32f7xx_hal_pwr_ex.c ****     /* Set Range */
ARM GAS  /tmp/ccLyiet9.s 			page 25


 503:Drivers/STM32F7xx_HAL_Driver/Src/stm32f7xx_hal_pwr_ex.c ****     __HAL_PWR_VOLTAGESCALING_CONFIG(VoltageScaling);
 867              		.loc 1 503 5 is_stmt 1 view .LVU203
 868              	.LBB6:
 869              		.loc 1 503 5 view .LVU204
 870              		.loc 1 503 5 view .LVU205
 871 004c 1B4A     		ldr	r2, .L94+4
 872 004e 1368     		ldr	r3, [r2]
 873 0050 23F44043 		bic	r3, r3, #49152
 874 0054 2B43     		orrs	r3, r3, r5
 875 0056 1360     		str	r3, [r2]
 876              		.loc 1 503 5 view .LVU206
 877 0058 1368     		ldr	r3, [r2]
 878 005a 03F44043 		and	r3, r3, #49152
 879 005e 0193     		str	r3, [sp, #4]
 880              		.loc 1 503 5 view .LVU207
 881 0060 019B     		ldr	r3, [sp, #4]
 882              	.LBE6:
 883              		.loc 1 503 5 view .LVU208
 504:Drivers/STM32F7xx_HAL_Driver/Src/stm32f7xx_hal_pwr_ex.c ****     
 505:Drivers/STM32F7xx_HAL_Driver/Src/stm32f7xx_hal_pwr_ex.c ****     /* Enable the main PLL */
 506:Drivers/STM32F7xx_HAL_Driver/Src/stm32f7xx_hal_pwr_ex.c ****     __HAL_RCC_PLL_ENABLE();
 884              		.loc 1 506 5 view .LVU209
 885 0062 02F5E432 		add	r2, r2, #116736
 886 0066 1368     		ldr	r3, [r2]
 887 0068 43F08073 		orr	r3, r3, #16777216
 888 006c 1360     		str	r3, [r2]
 507:Drivers/STM32F7xx_HAL_Driver/Src/stm32f7xx_hal_pwr_ex.c ****     
 508:Drivers/STM32F7xx_HAL_Driver/Src/stm32f7xx_hal_pwr_ex.c ****     /* Get Start Tick */
 509:Drivers/STM32F7xx_HAL_Driver/Src/stm32f7xx_hal_pwr_ex.c ****     tickstart = HAL_GetTick();
 889              		.loc 1 509 5 view .LVU210
 890              		.loc 1 509 17 is_stmt 0 view .LVU211
 891 006e FFF7FEFF 		bl	HAL_GetTick
 892              	.LVL44:
 893 0072 0446     		mov	r4, r0
 894              	.LVL45:
 510:Drivers/STM32F7xx_HAL_Driver/Src/stm32f7xx_hal_pwr_ex.c ****     /* Wait till PLL is ready */  
 511:Drivers/STM32F7xx_HAL_Driver/Src/stm32f7xx_hal_pwr_ex.c ****     while(__HAL_RCC_GET_FLAG(RCC_FLAG_PLLRDY) == RESET)
 895              		.loc 1 511 5 is_stmt 1 view .LVU212
 896              	.L82:
 897              		.loc 1 511 47 view .LVU213
 898              		.loc 1 511 11 is_stmt 0 view .LVU214
 899 0074 104B     		ldr	r3, .L94
 900 0076 1B68     		ldr	r3, [r3]
 901              		.loc 1 511 47 view .LVU215
 902 0078 13F0007F 		tst	r3, #33554432
 903 007c 06D1     		bne	.L92
 512:Drivers/STM32F7xx_HAL_Driver/Src/stm32f7xx_hal_pwr_ex.c ****     {
 513:Drivers/STM32F7xx_HAL_Driver/Src/stm32f7xx_hal_pwr_ex.c ****       if((HAL_GetTick() - tickstart ) > PLL_TIMEOUT_VALUE)
 904              		.loc 1 513 7 is_stmt 1 view .LVU216
 905              		.loc 1 513 11 is_stmt 0 view .LVU217
 906 007e FFF7FEFF 		bl	HAL_GetTick
 907              	.LVL46:
 908              		.loc 1 513 25 view .LVU218
 909 0082 001B     		subs	r0, r0, r4
 910              		.loc 1 513 9 view .LVU219
 911 0084 0228     		cmp	r0, #2
 912 0086 F5D9     		bls	.L82
ARM GAS  /tmp/ccLyiet9.s 			page 26


 514:Drivers/STM32F7xx_HAL_Driver/Src/stm32f7xx_hal_pwr_ex.c ****       {
 515:Drivers/STM32F7xx_HAL_Driver/Src/stm32f7xx_hal_pwr_ex.c ****         return HAL_TIMEOUT;
 913              		.loc 1 515 16 view .LVU220
 914 0088 0320     		movs	r0, #3
 915 008a 12E0     		b	.L79
 916              	.L92:
 516:Drivers/STM32F7xx_HAL_Driver/Src/stm32f7xx_hal_pwr_ex.c ****       } 
 517:Drivers/STM32F7xx_HAL_Driver/Src/stm32f7xx_hal_pwr_ex.c ****     }
 518:Drivers/STM32F7xx_HAL_Driver/Src/stm32f7xx_hal_pwr_ex.c ****     
 519:Drivers/STM32F7xx_HAL_Driver/Src/stm32f7xx_hal_pwr_ex.c ****     /* Get Start Tick */
 520:Drivers/STM32F7xx_HAL_Driver/Src/stm32f7xx_hal_pwr_ex.c ****     tickstart = HAL_GetTick();
 917              		.loc 1 520 5 is_stmt 1 view .LVU221
 918              		.loc 1 520 17 is_stmt 0 view .LVU222
 919 008c FFF7FEFF 		bl	HAL_GetTick
 920              	.LVL47:
 921 0090 0446     		mov	r4, r0
 922              	.LVL48:
 521:Drivers/STM32F7xx_HAL_Driver/Src/stm32f7xx_hal_pwr_ex.c ****     while((__HAL_PWR_GET_FLAG(PWR_FLAG_VOSRDY) == RESET))
 923              		.loc 1 521 5 is_stmt 1 view .LVU223
 924              	.L84:
 925              		.loc 1 521 48 view .LVU224
 926              		.loc 1 521 12 is_stmt 0 view .LVU225
 927 0092 0A4B     		ldr	r3, .L94+4
 928 0094 5B68     		ldr	r3, [r3, #4]
 929              		.loc 1 521 48 view .LVU226
 930 0096 13F4804F 		tst	r3, #16384
 931 009a 07D1     		bne	.L93
 522:Drivers/STM32F7xx_HAL_Driver/Src/stm32f7xx_hal_pwr_ex.c ****     {
 523:Drivers/STM32F7xx_HAL_Driver/Src/stm32f7xx_hal_pwr_ex.c ****       if((HAL_GetTick() - tickstart ) > PWR_VOSRDY_TIMEOUT_VALUE)
 932              		.loc 1 523 7 is_stmt 1 view .LVU227
 933              		.loc 1 523 11 is_stmt 0 view .LVU228
 934 009c FFF7FEFF 		bl	HAL_GetTick
 935              	.LVL49:
 936              		.loc 1 523 25 view .LVU229
 937 00a0 001B     		subs	r0, r0, r4
 938              		.loc 1 523 9 view .LVU230
 939 00a2 B0F57A7F 		cmp	r0, #1000
 940 00a6 F4D9     		bls	.L84
 524:Drivers/STM32F7xx_HAL_Driver/Src/stm32f7xx_hal_pwr_ex.c ****       {
 525:Drivers/STM32F7xx_HAL_Driver/Src/stm32f7xx_hal_pwr_ex.c ****         return HAL_TIMEOUT;
 941              		.loc 1 525 16 view .LVU231
 942 00a8 0320     		movs	r0, #3
 943 00aa 02E0     		b	.L79
 944              	.L93:
 526:Drivers/STM32F7xx_HAL_Driver/Src/stm32f7xx_hal_pwr_ex.c ****       } 
 527:Drivers/STM32F7xx_HAL_Driver/Src/stm32f7xx_hal_pwr_ex.c ****     }
 528:Drivers/STM32F7xx_HAL_Driver/Src/stm32f7xx_hal_pwr_ex.c ****   }
 529:Drivers/STM32F7xx_HAL_Driver/Src/stm32f7xx_hal_pwr_ex.c ****   else
 530:Drivers/STM32F7xx_HAL_Driver/Src/stm32f7xx_hal_pwr_ex.c ****   {
 531:Drivers/STM32F7xx_HAL_Driver/Src/stm32f7xx_hal_pwr_ex.c ****     return HAL_ERROR;
 532:Drivers/STM32F7xx_HAL_Driver/Src/stm32f7xx_hal_pwr_ex.c ****   }
 533:Drivers/STM32F7xx_HAL_Driver/Src/stm32f7xx_hal_pwr_ex.c ****   return HAL_OK;
 945              		.loc 1 533 10 view .LVU232
 946 00ac 0020     		movs	r0, #0
 947 00ae 00E0     		b	.L79
 948              	.LVL50:
 949              	.L86:
ARM GAS  /tmp/ccLyiet9.s 			page 27


 531:Drivers/STM32F7xx_HAL_Driver/Src/stm32f7xx_hal_pwr_ex.c ****   }
 950              		.loc 1 531 12 view .LVU233
 951 00b0 0120     		movs	r0, #1
 952              	.LVL51:
 953              	.L79:
 534:Drivers/STM32F7xx_HAL_Driver/Src/stm32f7xx_hal_pwr_ex.c **** }
 954              		.loc 1 534 1 view .LVU234
 955 00b2 03B0     		add	sp, sp, #12
 956              	.LCFI16:
 957              		.cfi_def_cfa_offset 12
 958              		@ sp needed
 959 00b4 30BD     		pop	{r4, r5, pc}
 960              	.L95:
 961 00b6 00BF     		.align	2
 962              	.L94:
 963 00b8 00380240 		.word	1073887232
 964 00bc 00700040 		.word	1073770496
 965              		.cfi_endproc
 966              	.LFE153:
 968              		.text
 969              	.Letext0:
 970              		.file 2 "/home/romet/st/stm32cubeide_1.13.2_2/plugins/com.st.stm32cube.ide.mcu.externaltools.gnu-t
 971              		.file 3 "/home/romet/st/stm32cubeide_1.13.2_2/plugins/com.st.stm32cube.ide.mcu.externaltools.gnu-t
 972              		.file 4 "Drivers/CMSIS/Include/core_cm7.h"
 973              		.file 5 "Drivers/CMSIS/Device/ST/STM32F7xx/Include/stm32f767xx.h"
 974              		.file 6 "Drivers/CMSIS/Device/ST/STM32F7xx/Include/stm32f7xx.h"
 975              		.file 7 "Drivers/STM32F7xx_HAL_Driver/Inc/stm32f7xx_hal_def.h"
 976              		.file 8 "Drivers/STM32F7xx_HAL_Driver/Inc/stm32f7xx_hal.h"
ARM GAS  /tmp/ccLyiet9.s 			page 28

